TMS340 COFF Macro Assembler Version 6.10     Sat Apr 10 02:20:27 2021
 Copyright (c) 1985-1991  Texas Instruments Incorporated 

                                                                     PAGE    1

       1                            .FILE   "NARCCHOP.ASM"
       3                    
       4                    **************************************************************************
       5                    *                                                                        *
       6                    *       COPYRIGHT (C) 1988 WILLIAMS ELECTRONICS GAMES, INC.              *
       7                    *       ALL RIGHTS RESERVED.                                             *
       8                    *                                                                        *
       9                    **************************************************************************
      10                    
      11                            .WIDTH  132
      12                            .OPTION B,D,L
      13                            .MNOLIST
      14                    
      15                    *       GET THE SYSTEM STUFF
      16                            .INCLUDE        "\video\MPROCEQU.ASM"   ;MPROC equates
      17                            .INCLUDE        "\video\DISPEQU.ASM"    ;Display processor equates
      18                            .INCLUDE        "\video\GSP.INC"        ;GSP assembler equates
      19                            .INCLUDE        "\video\SYS.INC"        ;Zunit system equates
      20                            .INCLUDE        "\video\MACROS.HDR"     ;Macros, Yeah!
      21                    *       LOCAL STUFF
      22                            .INCLUDE        "NARCEQU.ASM"           ;NARC Equates
      23                            .INCLUDE        "IMGTBL.GLO"            ;Image Label Equates
      24                            .INCLUDE        "NARCFRAG.GLO"
      25 00000000                   .TEXT
      26                            .INCLUDE        "NARCCHOP.TBL"          ;Image Label Equates
      27                            .INCLUDE        "NARCTEQU.ASM"
      28                    
      29                    *
      30                    *GLOBALS IN THIS FILE
      31                            .GLOBAL CHOPST,CHOPINTR,CHOFCOLD,PBOMBP1,PBOMBP2,KILLCHOY,CHORCOLD
      32                    *
      33                    *EXTERNALS
      34                            .GLOBAL XZCNTCK,PDRIVXWW
      35                            .GLOBAL PCDRIVRC,P1IJDECL,P2IJDECL
      36                            .GLOBAL LOFDEXP,LDEXP1
      37                            .GLOBAL NEXPLODE,NEXAIR,OIDATA
      38                            .GLOBAL CHOPRB,CNEWPAL,XVEL2X
      39                    
      40              0240  BMIRROR .EQU    ETEMP7  ;MIRRORED BLADE PART
      41                    **************************************************************************
      42                    *                                                                        *
      43                    * CHOPCOLD - COLD START THE CHOPPER                                      *
      44                    *                                                                        *
      45                    **************************************************************************
      46 00000000           CHOPCOLD
      47 00000000     05a0          MOVE    @CHOPCNT,A0,W
         00000010 00000000! 
      48 00000030     cb08          JRNE    CHOPCX
      49 00000040                   CREATE  CHOPEPID,CHOPPER
      50 000000c0           CHOPCX
      51 000000c0     0960          RETS
      52                    
      53                    **************************************************************************
      54                    *                                                                        *
      55                    * CHOPDISP - THE CHOPPER DISPATCHER.                                     *
TMS340 COFF Macro Assembler Version 6.10     Sat Apr 10 02:20:27 2021
 Copyright (c) 1985-1991  Texas Instruments Incorporated 

 <<< N  A  R  C  -- THE CHOPPER >>>                                  PAGE    2

      56                    *                                                                        *
      57                    **************************************************************************
      58                    
      59 000000d0           CHOPST  CREATE  CHOPEPID,CHOPDISP
      60 00000150     0960          RETS
      61                    
      62 00000160           CHOPDSPL
      63 00000160                   SLEEP   30
      64 000001a0     05a0          MOVE    @CHOPCNT,A0,W
         000001b0 00000000! 
      65 000001d0     cbf8          JRNE    CHOPDSPL
      66 000001e0     09c0          MOVI    0240H,A0                ;RANDOM SLEEP TIME
         000001f0     0240  
      67 00000200     0d5f          CALLA   RANDU
         00000210 00000000! 
      68 00000230     0b00          ADDI    0140H,A0
         00000240     0140  
      69 00000250     0d5f          CALLA   PRCSLP
         00000260 00000000! 
      70 00000280           CHOPDISP
      71 00000280                   CREATE  CHOPEPID,CHOPPER1
      72 00000300     c0e5          JRUC    CHOPDSPL
      73                    
      74                    **************************************************************************
      75                    *                                                                        *
      76                    * CHOPPER-THE CHOPPER PROCESS!!!                                         *
      77                    * A8     = DRIVER                                                        *      
      78                    * A10    = MAIN BODY                                                     *
      79                    * ETEMP1 = PTR TO SKIDS OBJECT                                           *
      80                    * ETEMP2 = PTR TO TAIL OBJECT                                            *
      81                    * ETEMP3 = PTR TO EXTENSION OBJECT                                       *
      82                    * ETEMP4 = PTR TO BLADE OBJECT                                           *
      83                    * ETEMP5 = PTR TO ROTOR OBJECT                                           *
      84                    * ETEMP7 = PTR TO BLADE OBJECT, MIRRORED                                 *
      85                    *                                                                        *
      86                    **************************************************************************
      87 00000310           CHOPPER1
      88 00000310     09ee          MOVI    CHOPINT1,A14
         00000320 00001760" 
      89 00000340     c003          JRUC    CHOPPER2
      90 00000350           CHOPPER
      91 00000350     09ee          MOVI    CHOPINIT,A14
         00000360 00000c00" 
      92 00000380           CHOPPER2
      93 00000380     09e6          MOVI    D3TAB,A6                                                 
         00000390 00008160' 
      94 000003b0     0d5f          CALLA   CARINIT                 ;INITIALIZE THE CAR
         000003c0 00000000! 
      95 000003e0     ca80          JAZ     DUMDIE                  ;BR = INITIALIZATION FAILURE
         000003f0 00000000! 
      96                    
      97 00000410     1a83          MOVK    20,A3                   ;BULLET HIT COUNT
      98 00000420     ac6d          MOVB    A3,*A13(ECLIP)
         00000430     0158  
      99                    
TMS340 COFF Macro Assembler Version 6.10     Sat Apr 10 02:20:27 2021
 Copyright (c) 1985-1991  Texas Instruments Incorporated 

 <<< N  A  R  C  -- THE CHOPPER >>>                                  PAGE    3

     100 00000440     5663          CLR     A3
     101 00000450     b26a          MOVE    A3,*A10(OPLINK),L
         00000460     01f0  
     102 00000470     b743          MOVE    *A10(OZVAL),A3,L
         00000480     00c0  
     103 00000490     b7a6          MOVE    *A13(ETEMP1),A6,L
         000004a0     0180  
     104 000004b0     b34d          MOVE    A10,*A13(ETEMP1),L
         000004c0     0180  
     105 000004d0     4cca          MOVE    A6,A10
     106 000004e0     b26a          MOVE    A3,*A10(OZVAL),L
         000004f0     00c0  
     107 00000500     b3aa          MOVE    A13,*A10(OPLINK),L      ;BODY
         00000510     01f0  
     108 00000520     b3a8          MOVE    A13,*A8(OPLINK),L       ;PILOT
         00000530     01f0  
     109                    
     110                    ***     CALLR   CHOPZRST                ;RESET THE CHOPPER Z'S
     111 00000540     0d3f          CALLR   CHOPFLIP
         00000550     03bf  
     112 00000560     0d3f          CALLR   CHOPSHAD                ;MAKE SOME SHADOWS
         00000570     0580  
     113                    
     114 00000580     05a6          MOVE    @CHOPCNT,A6,W
         00000590 00000000! 
     115 000005b0     1026          INC     A6
     116 000005c0     0586          MOVE    A6,@CHOPCNT,W
         000005d0 00000000! 
     117                    
     118 000005f0                   JSRP    CHOPPOWR                ;POWER THIS BEAST UP
     119 00000660     09e1          MOVI    0FFFF4000H,A1
         00000670 ffff4000  
     120 00000690     0d5f          CALLA   CARYVEL
         000006a0 00000000! 
     121 000006c0     1a90          MOVK    20,B0
     122 000006d0     1811          MOVK    32,B1
     123 000006e0     0d5f          CALLA   RANGRAND
         000006f0 00000000! 
     124 00000710                   SLEEPR  A0
     125 00000750                   SOUND1  CHOPCRUZ
     126 000007b0     09eb          MOVI    [6,0],A11
         000007c0 00060000  
     127 000007e0     09c9          MOVI    1000H,A9
         000007f0     1000  
     128 00000800     0d3f          CALLR   CHOPXACC
         00000810     0567  
     129 00000820                   SLEEP   150
     130 00000870     5621          CLR     A1
     131 00000880     0d5f          CALLA   CARYVEL
         00000890 00000000! 
     132 000008b0     c002          JRUC    CHOPL0
     133 000008c0           CHOPA1D
     134 000008c0     0d3f          CALLR   CHXVEL
         000008d0     009e  
     135 000008e0           CHOPL0
TMS340 COFF Macro Assembler Version 6.10     Sat Apr 10 02:20:27 2021
 Copyright (c) 1985-1991  Texas Instruments Incorporated 

 <<< N  A  R  C  -- THE CHOPPER >>>                                  PAGE    4

     136 000008e0     0d5f          CALLA   SELCTPLY        ;GET A PLAYER TO GO FOR
         000008f0 00000000! 
     137 00000910           CHOPL   
     138 00000910     1949          MOVK    10,A9
     139 00000920           CHOPALUP
     140 00000920     0d3f          CALLR   CHOPVEL         ;GET CHOPPER  VELOCITY
         00000930     030c  
     141 00000940                   SLEEP   1
     142 00000980     3ce9          DSJ     A9,CHOPALUP
     143 00000990     0d5f          CALLA   CARSCRTST
         000009a0 00000000! 
     144 000009c0     cb2d          JRNZ    CHOPOFF         ;NZ = OFF SCREEN         
     145 000009d0     09c0          MOVI    400,A0
         000009e0     0190  
     146 000009f0     0d5f          CALLA   RANDPER
         00000a00 00000000! 
     147 00000a20     c90e          JRNC    CHOPL1
     148 00000a30     0d5f          CALLA   RANDOM
         00000a40 00000000! 
     149 00000a60     27e0          SLL     31,A0
     150 00000a70     2cc0          SRL     26,A0
     151 00000a80     0b20          ADDI    PILTAB,A0
         00000a90 00000c60' 
     152 00000ab0     8601          MOVE    *A0,A1,L
     153 00000ac0     b504          MOVE    *A8(OFLAGS),A4,W
         00000ad0     0100  
     154 00000ae0     0d5f          CALLA   ANI
         00000af0 00000000! 
     155 00000b10           CHOPL1
     156 00000b10     0d3f          CALLR   CHFIRE
         00000b20     00ed  
     157 00000b30     05a0          MOVE    @CHOPRB,A0,W
         00000b40 00000000! 
     158 00000b60     0d5f          CALLA   RANDPER
         00000b70 00000000! 
     159 00000b90     c902          JRNC    CHOPL2
     160 00000ba0     0d3f          CALLR   CHROCK
         00000bb0     0290  
     161 00000bc0           CHOPL2
     162 00000bc0     05a0          MOVE    @CHOPRB,A0,W
         00000bd0 00000000! 
     163 00000bf0     0d5f          CALLA   RANDPER
         00000c00 00000000! 
     164 00000c20     c9ce          JRNC    CHOPL
     165 00000c30     0d3f          CALLR   CHBOMB
         00000c40     0102  
     166 00000c50     c0cb          JRUC    CHOPL
     167                    *
     168                    *PILOT ANIMATION TABLE
     169                    *
     170 00000c60 00000a80" PILTAB  .LONG   pilot5,pilot2
     171                    *OFFSCREEN, TURN AROUND
     172 00000ca0           CHOPOFF:
     173 00000ca0                   SLEEP   40              ;TAKE A LITTLE TIME OUT
     174 00000cf0     0d5f          CALLA   CARSCRTST
TMS340 COFF Macro Assembler Version 6.10     Sat Apr 10 02:20:27 2021
 Copyright (c) 1985-1991  Texas Instruments Incorporated 

 <<< N  A  R  C  -- THE CHOPPER >>>                                  PAGE    5

         00000d00 00000000! 
     175 00000d20     cabe          JRZ     CHOPL           ;NZ = OFF SCREEN         
     176                    
     177 00000d30     0d3f          CALLR   CHXVEL
         00000d40     0057  
     178 00000d50     09c0          MOVI    700,A0           ;CHANGE ALTITUDE ?
         00000d60     02bc  
     179 00000d70     0d5f          CALLA   RANDPER          
         00000d80 00000000! 
     180 00000da0     c919          JRNC    CHOPFL          ;NO
     181 00000db0     09c0          MOVI    150,A0
         00000dc0     0096  
     182 00000dd0     0d5f          CALLA   RANDU
         00000de0 00000000! 
     183 00000e00     1280          ADDK    20,A0           ;GET RANDOM ALTITUDE
     184 00000e10     09e2          MOVI    030000H,A2      ;Y SPEED
         00000e20 00030000  
     185 00000e40     0d5f          CALLA   DFRMGRND
         00000e50 00000000! 
     186 00000e70     4820          CMP     A1,A0
     187 00000e80     ce01          JRN     CHOPOF1
     188 00000e90     03a2          NEG     A2
     189 00000ea0           CHOPOF1
     190 00000ea0     4c41          MOVE    A2,A1   
     191 00000eb0     4c09          MOVE    A0,A9
     192 00000ec0                   JSRP    CHUPDWN
     193 00000f30           CHOPOF2
     194 00000f30     1a89          MOVK    20,A9           ;TIME OUT TO GET A NEW VELOCITY
     195 00000f40           CHOPFL
     196 00000f40     0d5f          CALLA   CARSCRTST
         00000f50 00000000! 
     197 00000f70     ca94          JRZ     CHOPA1D
     198 00000f80     0d3f          CALLR   CHOPVEL
         00000f90     02a6  
     199 00000fa0                   SLEEP   2
     200 00000fe0     3d69          DSJS    A9,CHOPFL
     201 00000ff0     0d3f          CALLR   CHXVEL          ;GET NEW VELOCITY, WE MAY BE LOST
         00001000     002b  
     202 00001010     c0f1          JRUC    CHOPOF2
     203                    *
     204                    *BLINK CHOPPER LIGHT
     205                    *
     206 00001020           CHOPLIT:
     207 00001020     09e0          MOVI    HELWHT,A0
         00001030 00000000! 
     208 00001050     0d5f          CALLA   FINDPAL
         00001060 00000000! 
     209 00001080     ca80          JAZ     SUCIDE
         00001090 00000000! 
     210 000010b0     4c08          MOVE    A0,A8           ;KEEP PALETTE POSITION
     211                    *
     212                    *PASS THE PALETTE # IN A8 HERE
     213 000010c0           CHOPLITG:
     214 000010c0     2708          SLL     24,A8
     215 000010d0     2e08          SRL     16,A8
TMS340 COFF Macro Assembler Version 6.10     Sat Apr 10 02:20:27 2021
 Copyright (c) 1985-1991  Texas Instruments Incorporated 

 <<< N  A  R  C  -- THE CHOPPER >>>                                  PAGE    6

     216 000010e0     0b08          ADDI    226,A8          ;ADD IN EYE COLOR VALUE
         000010f0     00e2  
     217 00001100           CL0LP
     218 00001100     09e9          MOVI    CCOLTAB,A9      ;INITIALIZE COLOR TABLE
         00001110 00001230' 
     219 00001130           CLILP:
     220 00001130     4d01          MOVE    A8,A1
     221 00001140     1822          MOVK    1,A2
     222 00001150     4d20          MOVE    A9,A0
     223 00001160     0d5f          CALLA   PALSET
         00001170 00000000! 
     224 00001190                   SLEEP   5
     225 000011d0     1209          ADDK    16,A9
     226 000011e0     0b69          CMPI    CCOLTEND,A9
         000011f0 ffffed3f' 
     227 00001210     c9ee          JRHS    CL0LP
     228 00001220     c0f0          JRUC    CLILP
     229                    *
     230                    *                R        G         B
     231                    *CHOP LIGHT COLOR TABLE
     232                    *0=END
     233 00001230           CCOLTAB
     234 00001230     0000        .WORD     0                               ;BLACK
     235 00001240     1400        .word   (5*32*32)+(0 *32)+(  0 )          ;RED
     236 00001250     2800        .word   (10*32*32)+(0*32)+(  0 )          ;WHITE
     237 00001260     3c00        .word   (15*32*32)+(0 *32)+( 0 )  
     238 00001270     5000        .word   (20*32*32)+(0 *32)+( 0 )  
     239 00001280     6400        .word   (25*32*32)+(0*32)+( 0)  
     240 00001290     7000        .word   (28*32*32)+(0 *32)+( 0 ) 
     241 000012a0     7c00        .word   (31*32*32)+(0 *32)+( 0 ) 
     242 000012b0     7fff        .word   (31*32*32)+(31*32)+( 31 )         ;WHITE
     243 000012c0           CCOLTEND
     244                    *
     245                    *GET CHOPPER XVEL AND FLIP
     246                    *
     247 000012c0           CHXVEL
     248 000012c0                   PUSH    A11
     249 000012d0     b501          MOVE    *A8(OXPOS),A1,W
         000012e0     0090  
     250 000012f0     0b41          CMPI    0FFFF8000H,A1,W  ;ZERO EXTEND TO C000
         00001300     7fff  
     251 00001310     c804          JRLO    CHXV1
     252 00001320     0b41          CMPI    0FFFFC000H,A1,W
         00001330     3fff  
     253 00001340     c301          JRHI    CHXV1
     254 00001350     0521          ZEXT    A1,W
     255 00001360           CHXV1
     256 00001360     05a2          MOVE    @WORLDTL,A2,W
         00001370 00000000! 
     257 00001390     0b02          ADDI    256,A2          ;ADJUST FOR CENTER SCREEN
         000013a0     0100  
     258 000013b0     0b42          CMPI    0FFFF8000H,A2,W
         000013c0     7fff  
     259 000013d0     c804          JRLO    CHXV2
     260 000013e0     0b42          CMPI    0FFFFC000H,A2,W
TMS340 COFF Macro Assembler Version 6.10     Sat Apr 10 02:20:27 2021
 Copyright (c) 1985-1991  Texas Instruments Incorporated 

 <<< N  A  R  C  -- THE CHOPPER >>>                                  PAGE    7

         000013f0     3fff  
     261 00001400     c301          JRHI    CHXV2
     262 00001410     0522          ZEXT    A2,W
     263 00001420           CHXV2
     264 00001420     4441          SUB     A2,A1
     265 00001430                   PUSH    A1
     266 00001440     2821          SRA     31,A1           ;SIGN EXTEND DOWNWARD
     267 00001450     b502          MOVE    *A8(OFLAGS),A2,W
         00001460     0100  
     268 00001470     5641          XOR     A2,A1
     269 00001480     1f61          BTST    B_FLIPH,A1
     270 00001490     cb05          JRNE    CHXVEL0          ;DONT FLIP IF FALLING BEHIND
     271 000014a0     0d5f          CALLA   CARSTOP
         000014b0 00000000! 
     272 000014d0     0d3f          CALLR   CHOPFLIP
         000014e0     02c6  
     273 000014f0           CHXVEL0
     274 000014f0     07ab          MOVE    @SCROLLX,A11,L
         00001500 00000000! 
     275 00001520     038b          ABS     A11
     276 00001530     09e0          MOVI    040000H,A0
         00001540 00040000  
     277 00001560     0d5f          CALLA   RANDU
         00001570 00000000! 
     278 00001590                   PUSH    A8
     279 000015a0     4d48          MOVE    A10,A8
     280 000015b0     0d5f          CALLA   DFRMGRND
         000015c0 00000000! 
     281 000015e0                   PULL    A8
     282 00001600     0b41          CMPI    50,A1
         00001610     ffcd  
     283 00001620     c303          JRHI    CHXVEL1
     284 00001630     0b20          ADDI    020000H,A0      ;COOK ON LOW PASS
         00001640 00020000  
     285 00001660           CHXVEL1
     286 00001660     0b20          ADDI    040000H,A0
         00001670 00040000  
     287 00001690     400b          ADD     A0,A11
     288 000016a0                   PULL    A1              ;GET BACK DISTANCE
     289 000016c0     0381          ABS     A1
     290 000016d0     0b41          CMPI    600,A1          ;WAYS OFF?
         000016e0     fda7  
     291 000016f0     c207          JRLS    CHXVEL2
     292 00001700     0b6b          CMPI    080000H,A11
         00001710 fff7ffff  
     293 00001730     c903          JRHS    CHXVEL2
     294 00001740     09eb          MOVI    080000H,A11
         00001750 00080000  
     295 00001770           CHXVEL2
     296 00001770     09e9          MOVI    8000H,A9
         00001780 00008000  
     297 000017a0     0d3f          CALLR   CHOPXACC
         000017b0     046d  
     298 000017c0                   PULL    A11
     299 000017e0     0960          RETS
TMS340 COFF Macro Assembler Version 6.10     Sat Apr 10 02:20:27 2021
 Copyright (c) 1985-1991  Texas Instruments Incorporated 

 <<< N  A  R  C  -- THE CHOPPER >>>                                  PAGE    8

     300                    *
     301                    *Y ADJUST CHOPPER
     302                    *A1=YVEL
     303                    *A9=DFRMGRND GOAL
     304                    *
     305 000017f0           CHUPDWN
     306 000017f0     0d5f          CALLA   CARYVEL
         00001800 00000000! 
     307 00001820     5621          CLR     A1
     308 00001830     0d5f          CALLA   CARZVEL         ;NO Z VELOCITY
         00001840 00000000! 
     309 00001860           CHUDLP
     310 00001860     0d5f          CALLA   DFRMGRND
         00001870 00000000! 
     311 00001890     4521          SUB     A9,A1
     312 000018a0     0381          ABS     A1
     313 000018b0     0b41          CMPI    8,A1
         000018c0     fff7  
     314 000018d0     c20b          JRLS    CHUDX
     315 000018e0     0d3f          CALLR   CHFIRE
         000018f0     0010  
     316 00001900     0d3f          CALLR   CHROCK
         00001910     01ba  
     317 00001920                   SLOOP   2,CHUDLP
     318 00001990           CHUDX
     319 00001990     5621          CLR     A1
     320 000019a0     0d5f          CALLA   CARYVEL          ;CUT Y VELOCITY
         000019b0 00000000! 
     321 000019d0                   RETP
     322                    *
     323                    *CHOPPER BULLET FIRE
     324                    *
     325 00001a00           CHFIRE
     326 00001a00     098f          MMTM    SP,A1,A7,A8,A10
         00001a10     41a0  
     327 00001a20     0d5f          CALLA   CARSCRTST
         00001a30 00000000! 
     328 00001a50     cb1e          JRNZ    CHFIREX                 ;NZ = OFF SCREEN         
     329 00001a60     4d48          MOVE    A10,A8
     330 00001a70     0d5f          CALLA   DFRMGRND
         00001a80 00000000! 
     331 00001aa0     0b41          CMPI    50,A1
         00001ab0     ffcd  
     332 00001ac0     c70c          JRGT    CHFIRE1
     333 00001ad0     09ea          MOVI    [23,81],A10
         00001ae0 00170051  
     334 00001b00                   CREATE  0EBH,EDBULLET
     335 00001b80     c00b          JRUC    CHFIREX
     336 00001b90           CHFIRE1
     337 00001b90     09ea          MOVI    [30,75],A10             ;FIRE A STRAIGHT SHOT
         00001ba0 001e004b  
     338 00001bc0                   CREATE  0EBH,EBULL45
     339 00001c40           CHFIREX
     340 00001c40     09af          MMFM    SP,A1,A7,A8,A10
         00001c50     0582  
TMS340 COFF Macro Assembler Version 6.10     Sat Apr 10 02:20:27 2021
 Copyright (c) 1985-1991  Texas Instruments Incorporated 

 <<< N  A  R  C  -- THE CHOPPER >>>                                  PAGE    9

     341 00001c60     0960          RETS
     342                    *
     343                    *CHOPPER BOMB DROP
     344                    *
     345 00001c70           CHBOMB
     346 00001c70     098f          MMTM    SP,A1,A7,A8,A10
         00001c80     41a0  
     347 00001c90     0d5f          CALLA   CARSCRTST
         00001ca0 00000000! 
     348 00001cc0     cb2c          JRNZ    CHBOMBX                 ;NZ = OFF SCREEN         
     349                    
     350 00001cd0                   SWAP    A10,A8
     351 00001d00     0d5f          CALLA   DFRMGRND
         00001d10 00000000! 
     352 00001d30     0b41          CMPI    80,A1
         00001d40     ffaf  
     353 00001d50     c423          JRLT    CHBOMBX                 ;NOT HIGH ENOUGH FOR BOMBING
     354 00001d60     07a0          MOVE    @P1DATA+POBJ,A0,L       ;LOOKING FOR PLAYER 1
         00001d70 000000a0! 
     355 00001d90     0d3f          CALLR   BOMBPLY                 ;SEE IF PLAYER IN SIGHT
         00001da0     01b2  
     356 00001db0     c806          JRC     CHBOMB2
     357                    
     358 00001dc0     07a0          MOVE    @P2DATA+POBJ,A0,L       ;LOOKING FOR PLAYER 1
         00001dd0 000000a0! 
     359 00001df0     0d3f          CALLR   BOMBPLY                 ;SEE IF PLAYER IN SIGHT
         00001e00     01ac  
     360 00001e10     c917          JRNC    CHBOMBX
     361 00001e20           CHBOMB2
     362 00001e20                   SWAP    A10,A8
     363 00001e50     09e1          MOVI    pilot1,A1               ;FLIP THE DUDE OFF
         00001e60 00000980" 
     364 00001e80     b504          MOVE    *A8(OFLAGS),A4,W
         00001e90     0100  
     365 00001ea0     0d5f          CALLA   ANI
         00001eb0 00000000! 
     366 00001ed0           CHBOMB3
     367 00001ed0     4d48          MOVE    A10,A8
     368 00001ee0     09ea          MOVI    [23,81],A10
         00001ef0 00170051  
     369 00001f10                   CREATE  0EBH,EBOMBP
     370 00001f90           CHBOMBX
     371 00001f90     09af          MMFM    SP,A1,A7,A8,A10
         00001fa0     0582  
     372 00001fb0     0960          RETS
     373                    *
     374                    *DROP A BOMB REGARDLESS
     375                    *
     376 00001fc0           BOMBLO
     377 00001fc0     098f          MMTM    SP,A1,A7,A8,A10
         00001fd0     41a0  
     378 00001fe0     c0ee          JRUC    CHBOMB3
     379                    
     380                    **************************************************************************
     381                    *                                                                        *
TMS340 COFF Macro Assembler Version 6.10     Sat Apr 10 02:20:27 2021
 Copyright (c) 1985-1991  Texas Instruments Incorporated 

 <<< N  A  R  C  -- THE CHOPPER >>>                                  PAGE   10

     382                    * EBOMBP - ENEMY BOMB PROCESS
     383                    * A8  = OBLOCK PTR OF ENEMY                                              *
     384                    * A10 = XY OFFSETS                                                       *
     385                    *                                                                        *
     386                    **************************************************************************
     387                    * A8  = PTR TO OBLOCK OF THE OBJECT DOING THE FIRING                     *
     388                    * A10 = BULLET OFFSET                                                    *
     389                    * A11 = PLAYER DATA PTR(0 = ENEMY NOT A PLAYER)                          *
     390                    * A14 = OBJECT INIT. TABLE                                               *
     391                    * B0  = RELEASE SOUND TO MAKE                                            *
     392                    * B4  = PLACE TO JUMP TO FINISH ANIMATION OF PROJECTILE                  *
     393 00001ff0           EBOMBP
     394 00001ff0     576b          CLR     A11
     395 00002000     09ee          MOVI    BOMBINIT,A14
         00002010 00002770' 
     396 00002030     09f0          MOVI    BMBSND,B0
         00002040 000023e0' 
     397 00002060     09f4          MOVI    EBMBP1,B4
         00002070 000020c0' 
     398 00002090     c080          JAUC    GBULLET
         000020a0 00000000! 
     399 000020c0           EBMBP1
     400 000020c0     09c1          MOVI    BEOID|BOMBID,A1
         000020d0     0be6  
     401 000020e0     b028          MOVE    A1,*A8(OID)             ;STUFF YOUR ID
         000020f0     01a0  
     402 00002100     ba08          MOVE    *A0(OXVEL),*A8(OXVEL),L
         00002110     0040  
         00002120     0040  
     403 00002130     09e1          MOVI    020000H,A1
         00002140 00020000  
     404 00002160     b228          MOVE    A1,*A8(OYVEL),L
         00002170     0060  
     405 00002180     4d00          MOVE    A8,A0                   ;PTR FOR INSERTION TO DATA BLOCK
     406 00002190     0d5f          CALLA   INSOBJ                  ;PUT THE OBJECT ON THE LIST      
         000021a0 00000000! 
     407 000021c0     09e1          MOVI    ENEMY_BULLETS,A1
         000021d0 00000000! 
     408 000021f0     0d5f          CALLA   ADDSUPP
         00002200 00000000! 
     409 00002220     0d5f          CALLA   SHADST                  ;GIVE THIS GUY A SHADOW
         00002230 00000000! 
     410 00002250           BFALL
     411 00002250                   SLEEP   3
     412 00002290     b700          MOVE    *A8(OYVEL),A0,L         ;EFFECT OF GRAVITY
         000022a0     0060  
     413 000022b0     0b00          ADDI    05000H,A0
         000022c0     5000  
     414 000022d0     b208          MOVE    A0,*A8(OYVEL),L
         000022e0     0060  
     415 000022f0     0d5f          CALLA   DFRMGRND
         00002300 00000000! 
     416 00002320     0b41          CMPI    0,A1
         00002330     ffff  
     417 00002340     c7f0          JRGT    BFALL                   ;IN THE AIR STILL
TMS340 COFF Macro Assembler Version 6.10     Sat Apr 10 02:20:27 2021
 Copyright (c) 1985-1991  Texas Instruments Incorporated 

 <<< N  A  R  C  -- THE CHOPPER >>>                                  PAGE   11

     418                    
     419                    *BLOW THIS BABY UP FOLKS !!!!!
     420 00002350     5600          CLR     A0
     421 00002360     b208          MOVE    A0,*A8(OPLINK),L        ;ZERO OUT OPLINK
         00002370     01f0  
     422 00002380     4d00          MOVE    A8,A0
     423 00002390     0d3f          CALLR   BCOLL1
         000023a0     0007  
     424 000023b0     c080          JAUC    SUCIDE                  ;WERE OUTA HERE
         000023c0 00000000! 
     425                    
     426 000023e0     f310  BMBSND  .WORD   0F310H,020H,08093H,0    ;FALLING BOMB
     427                    *
     428                    *BOMB COLLISION
     429                    *A8 = PTR TO OTHER THING 
     430                    *A0 = PTR TO LAND MINE
     431                    *
     432 00002420           BCOLL1 
     433 00002420     4c08          MOVE    A0,A8
     434 00002430     0d5f          CALLA   DFRMGRND
         00002440 00000000! 
     435 00002460     0b41          CMPI    10,A1
         00002470     fff5  
     436 00002480     c604          JRLE    BCOL1NEX
     437 00002490     09e7          MOVI    NEXAIR,A7
         000024a0 00000000! 
     438 000024c0     c003          JRUC    BCOL1EXG
     439 000024d0           BCOL1NEX
     440 000024d0     09e7          MOVI    NEXPLODE,A7             ;NORMAL EXPLOSION
         000024e0 00000000! 
     441 00002500           BCOL1EXG
     442 00002500     09c1          MOVI    REXPID,A1               ;EXPROSION PROCESS I.D. 
         00002510     0300  
     443 00002520     b402          MOVE    *A0(OZPOS),A2,W         ;LAND MINE Z
         00002530     00d0  
     444 00002540     b409          MOVE    *A0(OFLAGS),A9,W
         00002550     0100  
     445 00002560     2609          SLL     16,A9
     446 00002570     ec49          MOVX    A2,A9                   ;A9 = OFLAGS:OZPOS
     447 00002580     b40b          MOVE    *A0(OXPOS),A11,W
         00002590     0090  
     448 000025a0     b602          MOVE    *A0(OYVAL),A2,L
         000025b0     00a0  
     449                    
     450 000025c0     b40a          MOVE    *A0(OID),A10,W          ;A10 = BOMB I.D.
         000025d0     01a0  
     451 000025e0     ee4b          MOVY    A2,A11
     452 000025f0     4e00          MOVE    A0,B0
     453 00002600     0d5f          CALLA   GETPRC                  ;CREATE THE ROCKET EXPLOSION
         00002610 00000000! 
     454 00002630     4e10          MOVE    B0,A0
     455 00002640     b600          MOVE    *A0(OPLINK),A0,L
         00002650     01f0  
     456 00002660     ca03          JRZ     BCOLL4
     457 00002670     0d5f          CALLA   KILL
TMS340 COFF Macro Assembler Version 6.10     Sat Apr 10 02:20:27 2021
 Copyright (c) 1985-1991  Texas Instruments Incorporated 

 <<< N  A  R  C  -- THE CHOPPER >>>                                  PAGE   12

         00002680 00000000! 
     458 000026a0           BCOLL4
     459 000026a0     4e10          MOVE    B0,A0
     460 000026b0     09e1          MOVI    ENEMY_BULLETS,A1
         000026c0 00000000! 
     461 000026e0     0d5f          CALLA   DELSUPP
         000026f0 00000000! 
     462 00002710     0d5f          CALLA   DELSOBJ
         00002720 00000000! 
     463 00002740     5600          CLR     A0
     464 00002750     1020          INC     A0
     465 00002760     0960          RETS
     466                    
     467 00002770           BOMBINIT
     468 00002770 00000000          .LONG   0,0,0,0
     469 000027f0     0000          .WORD   0,0
     470 00002810 00000000!         .LONG   ROCKBIG,PROCKZ,BCOLL
     471 00002870     8402          .WORD   DMAWNZ|M_PIXSCAN,0
     472 00002890 00000000          .LONG   0
     473 000028b0           BCOLL
     474 000028b0     0c22          .WORD   CAR3OID|WSHLDID
     475 000028c0 00000000!         .LONG   DUMRTSG
     476                    
     477 000028e0     0c20          .WORD   CAR3OID|CBODYID
     478 000028f0 00000000!         .LONG   DUMRTSG
     479                            
     480 00002910     0bc5          .WORD   BGLID
     481 00002920 00000000!         .LONG   DUMRTSG
     482                    
     483 00002940     0bc7          .WORD   BGLTID
     484 00002950 00000000!         .LONG   DUMRTSG
     485                    
     486 00002970     0000          .WORD   0                       ;BLOW EVERYTHING UP
     487 00002980 00002420'         .LONG   BCOLL1
     488                    
     489                    
     490                    **************************************************************************
     491                    *                                                                        *
     492                    * PBOMBP - PLAYER BOMB PROCESS                                           *
     493                    * A8  = OBLOCK PTR OF ENEMY                                              *
     494                    * A10 = XY OFFSETS                                                       *
     495                    *                                                                        *
     496                    **************************************************************************
     497                    * A8  = PTR TO OBLOCK OF THE OBJECT DOING THE FIRING                     *
     498                    * A10 = BULLET OFFSET                                                    *
     499                    * A11 = PLAYER DATA PTR(0 = ENEMY NOT A PLAYER)                          *
     500                    * A14 = OBJECT INIT. TABLE                                               *
     501                    * B0  = RELEASE SOUND TO MAKE                                            *
     502                    * B4  = PLACE TO JUMP TO FINISH ANIMATION OF PROJECTILE                  *
     503                    *
     504                    *PLAYER ONE BOMB
     505 000029a0           PBOMBP1
     506 000029a0     09f4          MOVI    PBMBP1,B4
         000029b0 00002b50' 
     507 000029d0     09eb          MOVI    P1DATA,A11
TMS340 COFF Macro Assembler Version 6.10     Sat Apr 10 02:20:27 2021
 Copyright (c) 1985-1991  Texas Instruments Incorporated 

 <<< N  A  R  C  -- THE CHOPPER >>>                                  PAGE   13

         000029e0 00000000! 
     508 00002a00     c006          JRUC    PBOMBP
     509                    *PLAYER TWO BOMB
     510 00002a10           PBOMBP2
     511 00002a10     09eb          MOVI    P2DATA,A11
         00002a20 00000000! 
     512 00002a40     09f4          MOVI    PBMBP2,B4
         00002a50 00002b80' 
     513 00002a70           PBOMBP
     514 00002a70     b76a          MOVE    *A11(POFFSET),A10,L
         00002a80     0060  
     515 00002a90     07a8          MOVE    @PLAYCAR,A8,L
         00002aa0 00000000! 
     516 00002ac0     09ee          MOVI    PBMBINIT,A14
         00002ad0 00003290' 
     517 00002af0     09f0          MOVI    BMBSND,B0
         00002b00 000023e0' 
     518 00002b20     c080          JAUC    GBULLET
         00002b30 00000000! 
     519 00002b50           PBMBP1
     520 00002b50     09c1          MOVI    B1OID|BOMBID,A1
         00002b60     0b16  
     521 00002b70     c002          JRUC    PBMBPG
     522 00002b80           PBMBP2
     523 00002b80     09c1          MOVI    B2OID|BOMBID,A1
         00002b90     0b26  
     524 00002ba0           PBMBPG
     525 00002ba0     b028          MOVE    A1,*A8(OID)             ;STUFF YOUR ID
         00002bb0     01a0  
     526 00002bc0     ba08          MOVE    *A0(OXVEL),*A8(OXVEL),L
         00002bd0     0040  
         00002be0     0040  
     527 00002bf0     09e1          MOVI    020000H,A1
         00002c00 00020000  
     528 00002c20     b228          MOVE    A1,*A8(OYVEL),L
         00002c30     0060  
     529 00002c40     4d00          MOVE    A8,A0                   ;PTR FOR INSERTION TO DATA BLOCK
     530 00002c50     0d5f          CALLA   INSOBJ                  ;PUT THE OBJECT ON THE LIST      
         00002c60 00000000! 
     531 00002c80     09e1          MOVI    PLAYER_BULLETS,A1
         00002c90 00000000! 
     532 00002cb0     0d5f          CALLA   ADDSUPP
         00002cc0 00000000! 
     533 00002ce0     0d5f          CALLA   SHADST                  ;GIVE THIS GUY A SHADOW
         00002cf0 00000000! 
     534 00002d10           PBFALL
     535 00002d10                   SLEEP   3
     536 00002d50     b700          MOVE    *A8(OYVEL),A0,L         ;EFFECT OF GRAVITY
         00002d60     0060  
     537 00002d70     0b00          ADDI    05000H,A0
         00002d80     5000  
     538 00002d90     b208          MOVE    A0,*A8(OYVEL),L
         00002da0     0060  
     539 00002db0     0d5f          CALLA   DFRMGRND
         00002dc0 00000000! 
TMS340 COFF Macro Assembler Version 6.10     Sat Apr 10 02:20:27 2021
 Copyright (c) 1985-1991  Texas Instruments Incorporated 

 <<< N  A  R  C  -- THE CHOPPER >>>                                  PAGE   14

     540 00002de0     0b41          CMPI    0,A1
         00002df0     ffff  
     541 00002e00     c7f0          JRGT    PBFALL                  ;IN THE AIR STILL
     542                    
     543                    *BLOW THIS BABY UP FOLKS !!!!!
     544 00002e10     5600          CLR     A0
     545 00002e20     b208          MOVE    A0,*A8(OPLINK),L        ;ZERO OUT OPLINK
         00002e30     01f0  
     546 00002e40     4d00          MOVE    A8,A0
     547 00002e50     0d3f          CALLR   PBCOLL1
         00002e60     0003  
     548 00002e70     c080          JAUC    SUCIDE                  ;WERE OUTA HERE
         00002e80 00000000! 
     549                    
     550                    *
     551                    *PLAYER BOMB COLLISION
     552                    *A8 = PTR TO OTHER THING 
     553                    *A0 = PTR TO LAND MINE
     554                    *
     555 00002ea0           PBCOLL1 
     556 00002ea0     4c08          MOVE    A0,A8
     557 00002eb0     0d5f          CALLA   DFRMGRND
         00002ec0 00000000! 
     558 00002ee0     0b41          CMPI    10,A1
         00002ef0     fff5  
     559 00002f00     c604          JRLE    PBCOL1NEX
     560 00002f10     09e7          MOVI    NEXAIR,A7
         00002f20 00000000! 
     561 00002f40     c003          JRUC    PBCOL1EXG
     562 00002f50           PBCOL1NEX
     563 00002f50     09e7          MOVI    NEXPLODE,A7             ;NORMAL EXPLOSION
         00002f60 00000000! 
     564 00002f80           PBCOL1EXG
     565 00002f80     09c1          MOVI    REXPID,A1               ;EXPROSION PROCESS I.D. 
         00002f90     0300  
     566 00002fa0     b402          MOVE    *A0(OZPOS),A2,W         ;LAND MINE Z
         00002fb0     00d0  
     567 00002fc0     b409          MOVE    *A0(OFLAGS),A9,W
         00002fd0     0100  
     568 00002fe0     2609          SLL     16,A9
     569 00002ff0     ec49          MOVX    A2,A9                   ;A9 = OFLAGS:OZPOS
     570 00003000     b40b          MOVE    *A0(OXPOS),A11,W
         00003010     0090  
     571 00003020     b602          MOVE    *A0(OYVAL),A2,L
         00003030     00a0  
     572                    
     573 00003040     b40a          MOVE    *A0(OID),A10,W          ;A10 = BOMB I.D.
         00003050     01a0  
     574 00003060     ee4b          MOVY    A2,A11
     575 00003070     4e00          MOVE    A0,B0
     576 00003080     0d5f          CALLA   GETPRC                  ;CREATE THE ROCKET EXPLOSION
         00003090 00000000! 
     577 000030b0     4e10          MOVE    B0,A0
     578 000030c0     b600          MOVE    *A0(OPLINK),A0,L
         000030d0     01f0  
TMS340 COFF Macro Assembler Version 6.10     Sat Apr 10 02:20:27 2021
 Copyright (c) 1985-1991  Texas Instruments Incorporated 

 <<< N  A  R  C  -- THE CHOPPER >>>                                  PAGE   15

     579 000030e0     ca03          JRZ     PBCOLL4
     580 000030f0     0d5f          CALLA   KILL
         00003100 00000000! 
     581 00003120           PBCOLL4
     582 00003120     4e10          MOVE    B0,A0
     583 00003130     09e1          MOVI    PLAYER_BULLETS,A1
         00003140 00000000! 
     584 00003160     0d5f          CALLA   DELSUPP
         00003170 00000000! 
     585 00003190     0d5f          CALLA   DELSOBJ
         000031a0 00000000! 
     586                    
     587 000031c0     05a0          MOVE    @PCRSNDF,A0,W                   ;RUN SOUND ON?
         000031d0 00000000! 
     588 000031f0     ca06          JRZ     PBCOLL5                         ;NO
     589 00003200                   SOUND1  CHOPCRUZ                        ;RESTART SOUND AFTER BOMB
     590 00003260           PBCOLL5
     591 00003260     5600          CLR     A0
     592 00003270     1020          INC     A0
     593 00003280     0960          RETS
     594                    
     595 00003290           PBMBINIT
     596 00003290 00000000          .LONG   0,0,0,0
     597 00003310     0000          .WORD   0,0
     598 00003330 00000000!         .LONG   ROCKBIG,PROCKZ,PBCOLL
     599 00003390     8402          .WORD   DMAWNZ|M_PIXSCAN,0
     600 000033b0 00000000          .LONG   0
     601                    
     602 000033d0           PBCOLL
     603 000033d0     0c42          .WORD   TRAN2OID|WSHLDID
     604 000033e0 00000000!         .LONG   DUMRTSG
     605                    
     606 00003400     0c40          .WORD   TRAN2OID|CBODYID
     607 00003410 00000000!         .LONG   DUMRTSG
     608                    
     609 00003430     0bc5          .WORD   BGLID
     610 00003440 00000000!         .LONG   DUMRTSG
     611                    
     612 00003460     0bc7          .WORD   BGLTID
     613 00003470 00000000!         .LONG   DUMRTSG
     614                    
     615 00003490     0000          .WORD   0                       ;BLOW EVERYTHING UP
     616 000034a0 00002ea0'         .LONG   PBCOLL1
     617                    
     618                    *       CALLA   GPALOBJ
     619                    *       JRZ     ENINITX         ;BR = FAILURE ON PALETTE CREATION
     620                    *       MOVE    A13,*A0(OPLINK),L       ;LINK HOME
     621                    *       CALLA   STFOBJ
     622                    *
     623                    *SETUP POSITION X,Y,Z
     624                    *       MOVE    A10,A9
     625                    *       ZEXT    A9
     626                    *       SRL     16,A10
     627                    *
     628                    *       MOVE    *A8(OXPOS),A1,W
TMS340 COFF Macro Assembler Version 6.10     Sat Apr 10 02:20:27 2021
 Copyright (c) 1985-1991  Texas Instruments Incorporated 

 <<< N  A  R  C  -- THE CHOPPER >>>                                  PAGE   16

     629                    *       ADD     A9,A1
     630                    *       MOVE    A1,*A0(OXPOS),W
     631                    *       
     632                    *       MOVE    *A8(OYPOS),A1,W
     633                    *       ADD     A10,A1
     634                    *       MOVE    A1,*A0(OYPOS),W
     635                    *
     636                    *       MOVE    *A8(OZPOS),A1,W
     637                    *       MOVE    A1,*A0(OZPOS),W
     638                    *
     639                    **SETUP VELOCITY
     640                    *       
     641                    *       MOVE    A0,A8                   ;PTR FOR INSERTION TO DATA BLOCK
     642                    *       CALLA   INSOBJ                  ;PUT THE OBJECT ON THE LIST      
     643                    *       MOVI    ENEMY_BULLETS,A1
     644                    *       CALLR   ADDSUPP
     645                    *       CALLA   SHADST                  ;GIVE THIS GUY A SHADOW
     646                    *
     647                    *CHOPPER ROCKET FIRE
     648                    *FIRE A ROCKET IF THE PLAYER IS IN LINE OF FIRE
     649                    *
     650 000034c0           CHROCK
     651 000034c0     098f          MMTM    SP,A1,A7,A8,A10
         000034d0     41a0  
     652 000034e0     0d5f          CALLA   CARSCRTST
         000034f0 00000000! 
     653 00003510     cb18          JRNZ    CHROCKX                 ;NZ = OFF SCREEN         
     654                    
     655 00003520     07a0          MOVE    @P1DATA+POBJ,A0,L       ;LOOKING FOR PLAYER 1
         00003530 000000a0! 
     656 00003550     0d3f          CALLR   TARGPLY                 ;SEE IF PLAYER IN SIGHT
         00003560     0019  
     657 00003570     c806          JRC     CHROCK2
     658                    
     659 00003580     07a0          MOVE    @P2DATA+POBJ,A0,L       ;LOOKING FOR PLAYER 1
         00003590 000000a0! 
     660 000035b0     0d3f          CALLR   TARGPLY                 ;SEE IF PLAYER IN SIGHT
         000035c0     0013  
     661 000035d0     c90c          JRNC    CHROCKX
     662 000035e0           CHROCK2
     663 000035e0     4d48          MOVE    A10,A8
     664 000035f0     09ea          MOVI    [23,81],A10
         00003600 00170051  
     665 00003620                   CREATE  0EBH,EROCKET
     666 000036a0           CHROCKX
     667 000036a0     09af          MMFM    SP,A1,A7,A8,A10
         000036b0     0582  
     668 000036c0     0960          RETS
     669                    *
     670                    *FIRE A ROCKET REGARDLESS
     671 000036d0           ROCKBLO
     672 000036d0     098f          MMTM    SP,A1,A7,A8,A10
         000036e0     41a0  
     673 000036f0     c0ee          JRUC    CHROCK2
     674                            
TMS340 COFF Macro Assembler Version 6.10     Sat Apr 10 02:20:27 2021
 Copyright (c) 1985-1991  Texas Instruments Incorporated 

 <<< N  A  R  C  -- THE CHOPPER >>>                                  PAGE   17

     675                    *
     676                    *CHECK IF PLAYER IN ROCKET RANGE
     677                    *RETURNS CS IF IN RANGE
     678 00003700           TARGPLY:
     679 00003700     ca1a          JRZ     TARGPF                  ;ZERO INDICATES INACTIVE
     680 00003710     0d5f          CALLA   XZCHK
         00003720 00000000! 
     681 00003740     0b44          CMPI    20,A4
         00003750     ffeb  
     682 00003760     c914          JRHS    TARGPF
     683 00003770     b707          MOVE    *A8(OXVEL),A7,L
         00003780     0040  
     684 00003790     5627          XOR     A1,A7
     685 000037a0     4ce7          MOVE    A7,A7
     686 000037b0     ce0f          JRN     TARGPF                  ;COOL YOUR JETS PLAYER OUT OF RANGE
     687 000037c0     0b43          CMPI    60,A3
         000037d0     ffc3  
     688 000037e0     c20c          JRLS    TARGPF                  ;NOT FAR ENOUGH OUT FRONT
     689 000037f0     b501          MOVE    *A8(OYPOS),A1
         00003800     00b0  
     690 00003810     13c1          ADDK    30,A1
     691 00003820     b402          MOVE    *A0(OYPOS),A2
         00003830     00b0  
     692 00003840     4422          SUB     A1,A2
     693 00003850     0382          ABS     A2
     694 00003860     0b42          CMPI    20,A2
         00003870     ffeb  
     695 00003880     c902          JRHS    TARGPF
     696 00003890     0de0          SETC
     697 000038a0     0960          RETS
     698 000038b0           TARGPF:
     699 000038b0     0320          CLRC
     700 000038c0     0960          RETS
     701                    *
     702                    *CHECK IF PLAYER IN BOMB RANGE
     703                    *RETURNS CS IF IN RANGE
     704 000038d0           BOMBPLY:
     705 000038d0     ca10          JRZ     BOMBPF                  ;ZERO INDICATES INACTIVE
     706 000038e0     0d5f          CALLA   XZCHK
         000038f0 00000000! 
     707 00003910     0b44          CMPI    20,A4
         00003920     ffeb  
     708 00003930     c90a          JRHS    BOMBPF
     709 00003940     b707          MOVE    *A8(OXVEL),A7,L
         00003950     0040  
     710 00003960     5627          XOR     A1,A7
     711 00003970     4ce7          MOVE    A7,A7
     712 00003980     ce05          JRN     BOMBPF                  ;COOL YOUR JETS PLAYER OUT OF RANGE
     713 00003990     0b43          CMPI    60,A3
         000039a0     ffc3  
     714 000039b0     c202          JRLS    BOMBPF                  ;NOT FAR ENOUGH OUT FRONT
     715 000039c0     0de0          SETC
     716 000039d0     0960          RETS
     717 000039e0           BOMBPF:
     718 000039e0     0320          CLRC
TMS340 COFF Macro Assembler Version 6.10     Sat Apr 10 02:20:27 2021
 Copyright (c) 1985-1991  Texas Instruments Incorporated 

 <<< N  A  R  C  -- THE CHOPPER >>>                                  PAGE   18

     719 000039f0     0960          RETS
     720                    *
     721                    *GET CHOPPER VELOCITY
     722                    *A11=PLAYER GOING AFTER
     723                    *
     724 00003a00           CHOPVEL:
     725 00003a00     4d60          MOVE    A11,A0
     726 00003a10     0d5f          CALLA   GETPLYR         ;NOW GET AN ACTIVE PLAYER
         00003a20 00000000! 
     727 00003a40     b600          MOVE    *A0(POBJ),A0,L  ;GET THE OBJECT BLOCK
         00003a50     00a0  
     728 00003a60     0d5f          CALLA   XZCHK
         00003a70 00000000! 
     729 00003a90     b707          MOVE    *A8(OXVEL),A7,L
         00003aa0     0040  
     730 00003ab0     5627          XOR     A1,A7
     731 00003ac0     4ce7          MOVE    A7,A7
     732 00003ad0     ce06          JRN     CHOPV00                 ;COOL YOUR JETS PLAYER OUT OF RANGE
     733 00003ae0     0b43          CMPI    100,A3
         00003af0     ff9b  
     734 00003b00     c203          JRLS    CHOPV00                 ;NOT FAR ENOUGH OUT FRONT
     735                            
     736 00003b10     0b44          CMPI    7,A4
         00003b20     fff8  
     737 00003b30     c906          JRHS    CHOPV0
     738 00003b40           CHOPV00
     739 00003b40     b702          MOVE    *A8(OZVEL),A2,L
         00003b50     00e0  
     740 00003b60     4c43          MOVE    A2,A3
     741 00003b70     2bc3          SRA     2,A3                    ;CLEAR VELOCITY, TOO CLOSE
     742 00003b80     4462          SUB     A3,A2
     743 00003b90     c015          JRUC    CHOPV2
     744 00003ba0           CHOPV0
     745 00003ba0     09e1          MOVI    08000H,A1
         00003bb0 00008000  
     746 00003bd0     4c42          MOVE    A2,A2
     747 00003be0     cf01          JRNN    CHOPV1
     748 00003bf0     03a1          NEG     A1
     749 00003c00           CHOPV1
     750 00003c00     b703          MOVE    *A8(OYVEL),A3,L         ;GET ZVEL
         00003c10     0060  
     751 00003c20     b702          MOVE    *A8(OZVEL),A2,L
         00003c30     00e0  
     752 00003c40     4022          ADD     A1,A2
     753 00003c50     4023          ADD     A1,A3
     754 00003c60     4c44          MOVE    A2,A4
     755 00003c70     4c65          MOVE    A3,A5
     756 00003c80     0384          ABS     A4
     757 00003c90     0b64          CMPI    030000H,A4
         00003ca0 fffcffff  
     758 00003cc0     c202          JRLS    CHOPV2
     759 00003cd0     4422          SUB     A1,A2
     760 00003ce0     4423          SUB     A1,A3
     761 00003cf0           CHOPV2:
     762 00003cf0     4c41          MOVE    A2,A1
TMS340 COFF Macro Assembler Version 6.10     Sat Apr 10 02:20:27 2021
 Copyright (c) 1985-1991  Texas Instruments Incorporated 

 <<< N  A  R  C  -- THE CHOPPER >>>                                  PAGE   19

     763 00003d00     b506          MOVE    *A8(OZPOS),A6,W
         00003d10     00d0  
     764 00003d20     05a7          MOVE    @PLZMIN,A7,W
         00003d30 00000000! 
     765 00003d50     1087          ADDK    4,A7            ;FUDGE FACTOR
     766 00003d60     48c7          CMP     A6,A7
     767 00003d70     c803          JRLO    CHOPV20
     768 00003d80     4c21          MOVE    A1,A1
     769 00003d90     cf01          JRNN    CHOPV20         ;GET OFF THE WALL
     770 00003da0     5621          CLR     A1
     771 00003db0           CHOPV20
     772 00003db0     0d5f          CALLA   CARYZVEL
         00003dc0 00000000! 
     773 00003de0     0960          RETS
     774                    **************************************************************************
     775                    *                                                                        *
     776                    * CHOPFIRE - MAKE THE CHOPPER SPAWN A BULLET PROCESS                     *
     777                    *                                                                        *
     778                    **************************************************************************
     779 00003df0           CHOPFIRE
     780 00003df0     098f          MMTM    SP,A1,A7,A8
         00003e00     4180  
     781 00003e10     4d48          MOVE    A10,A8
     782 00003e20     09ea          MOVI    [23,81],A10
         00003e30 00170051  
     783 00003e50                   CREATE  0EBH,EDBULLET
     784 00003ed0     4d0a          MOVE    A8,A10
     785 00003ee0     09af          MMFM    SP,A1,A7,A8
         00003ef0     0182  
     786 00003f00     0960          RETS
     787                    **************************************************************************
     788                    *                                                                        *
     789                    * CHOPROCK - MAKE THE CHOPPER SPAWN A ROCKET PROCESS                     *
     790                    *                                                                        *
     791                    **************************************************************************
     792 00003f10           CHOPROCK
     793 00003f10     098f          MMTM    SP,A1,A7,A8
         00003f20     4180  
     794 00003f30     4d48          MOVE    A10,A8
     795 00003f40     09ea          MOVI    [23,81],A10
         00003f50 00170051  
     796 00003f70                   CREATE  0EBH,EROCKET
     797 00003ff0     4d0a          MOVE    A8,A10
     798 00004000     09af          MMFM    SP,A1,A7,A8
         00004010     0182  
     799 00004020     0960          RETS
     800                    **************************************************************************
     801                    *                                                                        *
     802                    * CHOPF45 - CHOPPER SPAWN A 45 DEGREE DOWN BULLET                        *
     803                    *                                                                        *
     804                    **************************************************************************
     805 00004030           CHOPF45
     806 00004030     098f          MMTM    SP,A1,A7,A8
         00004040     4180  
     807 00004050     4d48          MOVE    A10,A8
TMS340 COFF Macro Assembler Version 6.10     Sat Apr 10 02:20:27 2021
 Copyright (c) 1985-1991  Texas Instruments Incorporated 

 <<< N  A  R  C  -- THE CHOPPER >>>                                  PAGE   20

     808 00004060     09ea          MOVI    [30,75],A10
         00004070 001e004b  
     809 00004090                   CREATE  0EBH,EBULL45
     810 00004110     4d0a          MOVE    A8,A10
     811 00004120     09af          MMFM    SP,A1,A7,A8
         00004130     0182  
     812 00004140     0960          RETS
     813                    **************************************************************************
     814                    *                                                                        *
     815                    * CHOPFLIP - FLIP THE CHOPPER                                            *
     816                    * NOTE: KEEP THIS ABOVE CHOPZRST                                         *
     817                    *                                                                        *
     818                    **************************************************************************
     819 00004150           CHOPFLIP
     820 00004150     098f          MMTM    SP,A1,A4,A8
         00004160     4880  
     821 00004170     4d48          MOVE    A10,A8
     822 00004180     b504          MOVE    *A8(OFLAGS),A4,W
         00004190     0100  
     823 000041a0     0bc4          XORI    M_FLIPH,A4
         000041b0 00000010  
     824 000041d0     b701          MOVE    *A8(OIMG),A1,L
         000041e0     0180  
     825 000041f0     0d5f          CALLA   ANI
         00004200 00000000! 
     826 00004220     09af          MMFM    SP,A1,A4,A8
         00004230     0112  
     827 00004240     0d3f          CALLR   CHOPART
         00004250     003c  
     828                    **************************************************************************
     829                    *                                                                        *
     830                    * CHOPZRST - RESET ALL CHOPPER PART Z POSITIONS TO MATCH THE MAIN        *
     831                    *         BODY.                                                          *
     832                    * A8 = PTR TO PILOT                                                      *
     833                    * A10 = PTR TO CHOPPER                                                   *
     834                    *                                                                        *
     835                    **************************************************************************
     836 00004260           CHOPZRST
     837 00004260     098f          MMTM    SP,A0,A11
         00004270     8010  
     838 00004280     b74b          MOVE    *A10(OZVAL),A11,L       ;GET THE CURRENT CAR Z VALUE
         00004290     00c0  
     839 000042a0     b7a0          MOVE    *A13(ETEMP1),A0,L
         000042b0     0180  
     840 000042c0     ca02          JRZ     CHOPZR1
     841 000042d0     b360          MOVE    A11,*A0(OZVAL),L        ;SKIDS
         000042e0     00c0  
     842 000042f0           CHOPZR1
     843 000042f0     b7a0          MOVE    *A13(ETEMP2),A0,L
         00004300     01a0  
     844 00004310     ca02          JRZ     CHOPZR2
     845 00004320     b360          MOVE    A11,*A0(OZVAL),L        ;EXTENSION
         00004330     00c0  
     846 00004340           CHOPZR2
     847 00004340     b7a0          MOVE    *A13(ETEMP3),A0,L
TMS340 COFF Macro Assembler Version 6.10     Sat Apr 10 02:20:27 2021
 Copyright (c) 1985-1991  Texas Instruments Incorporated 

 <<< N  A  R  C  -- THE CHOPPER >>>                                  PAGE   21

         00004350     01c0  
     848 00004360     ca02          JRZ     CHOPZR3
     849 00004370     b360          MOVE    A11,*A0(OZVAL),L        ;TAIL
         00004380     00c0  
     850 00004390           CHOPZR3
     851 00004390     102b          INC     A11
     852 000043a0     b7a0          MOVE    *A13(ETEMP6),A0,L
         000043b0     0220  
     853 000043c0     ca02          JRZ     CHOPZR3A
     854 000043d0     b360          MOVE    A11,*A0(OZVAL),L        ;LOGO = CHOPPER Z + 1
         000043e0     00c0  
     855 000043f0           CHOPZR3A
     856 000043f0     146b          SUBK    3,A11
     857 00004400     4d08          MOVE    A8,A8
     858 00004410     ca02          JRZ     CHOPZR4
     859 00004420     b368          MOVE    A11,*A8(OZVAL),L        ;PILOT = CHOPPER Z - 2
         00004430     00c0  
     860 00004440           CHOPZR4
     861 00004440     102b          INC     A11
     862 00004450     b7a0          MOVE    *A13(ETEMP8),A0,L
         00004460     0260  
     863 00004470     ca02          JRZ     CHOPZR4B
     864 00004480     b360          MOVE    A11,*A0(OZVAL),L        ;PASSENGER = CHOPPER Z - 1
         00004490     00c0  
     865 000044a0           CHOPZR4B
     866 000044a0     104b          ADDK    2,A11
     867 000044b0     b7a0          MOVE    *A13(ETEMP4),A0,L
         000044c0     01e0  
     868 000044d0     ca02          JRZ     CHOPZR4A
     869 000044e0     b360          MOVE    A11,*A0(OZVAL),L        ;BLADE = CAR Z + 2
         000044f0     00c0  
     870 00004500           CHOPZR4A
     871 00004500     b7a0          MOVE    *A13(BMIRROR),A0,L
         00004510     0240  
     872 00004520     ca02          JRZ     CHOPZR5
     873 00004530     b360          MOVE    A11,*A0(OZVAL),L
         00004540     00c0  
     874 00004550           CHOPZR5
     875 00004550     b540          MOVE    *A10(OFLAGS),A0,W
         00004560     0100  
     876 00004570     1f60          BTST    B_FLIPH,A0
     877 00004580     cb01          JRNE    CHOPZR6
     878 00004590     144b          SUBK    2,A11                   ;MOVE ROTOR TO OTHER SIDE
     879 000045a0           CHOPZR6
     880 000045a0     b7a0          MOVE    *A13(ETEMP5),A0,L
         000045b0     0200  
     881 000045c0     ca02          JRZ     CHOPZR7
     882 000045d0     b360          MOVE    A11,*A0(OZVAL),L        ;ROTOR = +/- 1 DEPENDING ON FLIP
         000045e0     00c0  
     883 000045f0           CHOPZR7
     884 000045f0     09af          MMFM    SP,A0,A11
         00004600     0801  
     885 00004610     0960          RETS
     886                    
     887                    **************************************************************************
TMS340 COFF Macro Assembler Version 6.10     Sat Apr 10 02:20:27 2021
 Copyright (c) 1985-1991  Texas Instruments Incorporated 

 <<< N  A  R  C  -- THE CHOPPER >>>                                  PAGE   22

     888                    *                                                                        *
     889                    * CHOPART - SET THE FLIP BITS OF ALL CHOPPER PARTS ACCORDING TO          *
     890                    *          THE MAIN BODY. THIS INCLUDES THE DRIVER.                      *
     891                    * A8 = PTR TO DRIVER                                                     *
     892                    * A10 = PTR TO THE VEHICLE                                               *
     893                    * A13 = PTR TO PROC BLOCK                                                *
     894                    *                                                                        *
     895                    **************************************************************************
     896 00004620           CHOPART
     897 00004620     098f          MMTM    SP,A0,A1,A4,A8,A13
         00004630     c884  
     898 00004640     b544          MOVE    *A10(OFLAGS),A4,W
         00004650     0100  
     899 00004660     4d00          MOVE    A8,A0
     900 00004670     4d48          MOVE    A10,A8
     901 00004680     0d5f          CALLA   GETANIXY
         00004690 00000000! 
     902 000046b0     4e42          MOVE    A2,B2
     903 000046c0     4e63          MOVE    A3,B3
     904 000046d0                   TEST    A0
     905 000046e0     ca03          JRZ     CHFLIPP1
     906 000046f0     0d5f          CALLA   GANISAG                 ;RE-ADJUST DRIVER
         00004700 00000000! 
     907 00004720           CHFLIPP1
     908 00004720     0b0d          ADDI    ETEMP1,A13
         00004730     0180  
     909 00004740     1906          MOVK    NPARTS,A6
     910 00004750           CHFLIPP2
     911 00004750     97a0          MOVE    *A13+,A0,L
     912 00004760     ca05          JRZ     CHFLIPP3
     913 00004770     4e52          MOVE    B2,A2
     914 00004780     4e73          MOVE    B3,A3
     915 00004790     0d5f          CALLA   GANISAG                 ;RE-ADJUST PARTS
         000047a0 00000000! 
     916 000047c0           CHFLIPP3
     917 000047c0     3d06          DSJS    A6,CHFLIPP2
     918 000047d0     b74d          MOVE    *A10(OPLINK),A13,L
         000047e0     01f0  
     919 000047f0     b7a0          MOVE    *A13(BMIRROR),A0,L
         00004800     0240  
     920 00004810     ca08          JRZ     CHFLIPP4
     921 00004820     0bc4          XORI    M_FLIPH,A4              ;KEEP MIRRORED BLADE CORRECT
         00004830 00000010  
     922 00004850     4e52          MOVE    B2,A2
     923 00004860     4e73          MOVE    B3,A3
     924 00004870     0d5f          CALLA   GANISAG                 ;RE-ADJUST BLADE
         00004880 00000000! 
     925 000048a0           CHFLIPP4
     926 000048a0     b544          MOVE    *A10(OFLAGS),A4,W       ;DONT FLIP LOGO
         000048b0     0100  
     927 000048c0     1f64          BTST    B_FLIPH,A4
     928 000048d0     ca13          JREQ    CHFLIPP5                ;NO FLIP, EXIT
     929 000048e0     b74d          MOVE    *A10(OPLINK),A13,L
         000048f0     01f0  
     930 00004900     b7a0          MOVE    *A13(ETEMP6),A0,L
TMS340 COFF Macro Assembler Version 6.10     Sat Apr 10 02:20:27 2021
 Copyright (c) 1985-1991  Texas Instruments Incorporated 

 <<< N  A  R  C  -- THE CHOPPER >>>                                  PAGE   23

         00004910     0220  
     931 00004920     ca0e          JREQ    CHFLIPP5                ;NO LOGO, EXIT
     932 00004930     b604          MOVE    *A0(OFLAGS),A4,L
         00004940     0100  
     933 00004950     5621          CLR     A1
     934 00004960     ee24          MOVY    A1,A4                   ;ZERO OFFSET
     935 00004970     0bc4          XORI    M_FLIPH,A4              ;CAN FLIP
         00004980 00000010  
     936 000049a0     07a1          MOVE    @kraklo+040H,A1,L       ;GET SAG
         000049b0 00000bc0" 
     937 000049d0     b280          MOVE    A4,*A0(OFLAGS),L
         000049e0     0100  
     938 000049f0     b220          MOVE    A1,*A0(OSAG),L
         00004a00     0120  
     939 00004a10           CHFLIPP5
     940 00004a10     09af          MMFM    SP,A0,A1,A4,A8,A13
         00004a20     2113  
     941 00004a30     0960          RETS
     942                    
     943                    **************************************************************************
     944                    *                                                                        *
     945                    * CHOPSETZ - SET Z POSITION OF CHOPPER ACCORDING TO THE SKIDS,           *
     946                    *               THEN RESET THE REST TO MATCH THAT BAD DOG.               *
     947                    * A8 = PTR TO PILOT                                                      *
     948                    * A10 = PTR TO CHOPPER                                                   *
     949                    * A13 = PTR TO PROC BLOC                                                 *
     950                    *                                                                        *
     951                    **************************************************************************
     952 00004a40           CHOPSETZ
     953 00004a40                   PUSH    A0
     954 00004a50     b7a0          MOVE    *A13(ETEMP1),A0,L       
         00004a60     0180  
     955 00004a70     0d5f          CALLA   SETZPOS
         00004a80 00000000! 
     956 00004aa0     ba0a          MOVE    *A0(OZVAL),*A10(OZVAL),L
         00004ab0     00c0  
         00004ac0     00c0  
     957 00004ad0     09af          MMFM    SP,A0
         00004ae0     0001  
     958 00004af0     c000          JRUC    CHOPZRST
         00004b00     ff75  
     959                    
     960                    **************************************************************************
     961                    *                                                                        *
     962                    * CHOPPOWR - CHOPPER START UP W/SOUND                                                    *
     963                    * RETURNS                                                                *
     964                    * A11 = PTR TO ROTOR SPIN PROC                                           *
     965                    * NOTE: CALL THIS ONLY FROM THE CHOPPER MAIN PROCESS IF YOU WANT         *
     966                    *       THE SPAWNED PROCESSES TO RESIDE DIRECTLY AFTER THIS ONE.         *
     967                    *                                                                        *
     968                    **************************************************************************
     969 00004b10           CHOPPOWR
     970 00004b10     098f          MMTM    SP,A0,A1,A2,A3,A4,A5,A6,A7,A8,A9,A10,A11,A12,A13,A14
         00004b20     fffe  
     971 00004b30     09c0          MOVI    4,A0
TMS340 COFF Macro Assembler Version 6.10     Sat Apr 10 02:20:27 2021
 Copyright (c) 1985-1991  Texas Instruments Incorporated 

 <<< N  A  R  C  -- THE CHOPPER >>>                                  PAGE   24

         00004b40     0004  
     972 00004b50     0d5f          CALLA   RANDU
         00004b60 00000000! 
     973 00004b80     1420          DEC     A0
     974 00004b90     ca11          JREQ    CHPPWR1
     975 00004ba0     09ee          MOVI    000100E17H,A14                  ;CREATE A CHOPPER LOAF
         00004bb0 00100e17  
     976 00004bd0     0b40          CMPI    3,A0
         00004be0     fffc  
     977 00004bf0     cb01          JRNE    CHPPWR00
     978 00004c00     102e          INC     A14
     979 00004c10           CHPPWR00:
     980 00004c10     0d5f          CALLA   GETANIXY
         00004c20 00000000! 
     981 00004c40     4c45          MOVE    A2,A5
     982 00004c50     2e03          SRL     16,A3
     983 00004c60     ec65          MOVX    A3,A5
     984 00004c70           CHPPWR0L
     985 00004c70     0d5f          CALLA   LOFCOLD
         00004c80 00000000! 
     986 00004ca0     3c80          DSJS    A0,CHPPWR0L
     987 00004cb0           CHPPWR1
     988 00004cb0     09af          MMFM    SP,A0,A1,A2,A3,A4,A5,A6,A7,A8,A9,A10,A11,A12,A13,A14
         00004cc0     7fff  
     989 00004cd0                   SOUND1  POWERSND
     990 00004d30     098c          MMTM    A12,A9,A11
         00004d40     0050  
     991 00004d50     4f00          MOVE    A8,B0
     992 00004d60     4f41          MOVE    A10,B1
     993                    
     994 00004d70     b7a8          MOVE    *A13(ETEMP1),A8,L       ;CHOP LIGHT BLINKER
         00004d80     0180  
     995 00004d90                   CREATE  INDPID,CHOPLIT
     996 00004e10     b208          MOVE    A0,*A8(OPLINK),L
         00004e20     01f0  
     997                    
     998 00004e30     09e9          MOVI    ROTORSPN,A9
         00004e40 00008240' 
     999 00004e60     188b          MOVK    4,A11                   ;BLADE SPEED (SLEEP TIME)
    1000 00004e70     b7a8          MOVE    *A13(ETEMP5),A8,L
         00004e80     0200  
    1001 00004e90                   CREATE  INDPID,ANIMATOR
    1002 00004f10     b208          MOVE    A0,*A8(OPLINK),L
         00004f20     01f0  
    1003 00004f30     4c03          MOVE    A0,A3
    1004 00004f40     09e9          MOVI    BLADESPN,A9
         00004f50 00008160' 
    1005 00004f70     188b          MOVK    4,A11
    1006 00004f80     b7a8          MOVE    *A13(ETEMP4),A8,L
         00004f90     01e0  
    1007 00004fa0     b7aa          MOVE    *A13(BMIRROR),A10,L
         00004fb0     0240  
    1008 00004fc0                   CREATE  INDPID,ANIMATE2
    1009 00005040     b208          MOVE    A0,*A8(OPLINK),L
         00005050     01f0  
TMS340 COFF Macro Assembler Version 6.10     Sat Apr 10 02:20:27 2021
 Copyright (c) 1985-1991  Texas Instruments Incorporated 

 <<< N  A  R  C  -- THE CHOPPER >>>                                  PAGE   25

    1010 00005060     b20a          MOVE    A0,*A10(OPLINK),L
         00005070     01f0  
    1011 00005080     4c09          MOVE    A0,A9
    1012 00005090     4c6b          MOVE    A3,A11
    1013 000050a0     09c0          MOVI    45H,A0
         000050b0     0045  
    1014 000050c0     4e18          MOVE    B0,A8
    1015 000050d0     4e3a          MOVE    B1,A10
    1016 000050e0           CHOPP
    1017 000050e0     098c          MMTM    A12,A0
         000050f0     8000  
    1018 00005100                   JSRP    CHPSLP
    1019 00005170     09ac          MMFM    A12,A4
         00005180     0010  
    1020 00005190     4d20          MOVE    A9,A0
    1021 000051a0     4d69          MOVE    A11,A9
    1022 000051b0     0d5f          CALLA   GETA11  
         000051c0 00000000! 
    1023 000051e0     ca04          JRZ     CHOPP1
    1024 000051f0     142b          DEC     A11
    1025 00005200     0d5f          CALLA   PUTA11
         00005210 00000000! 
    1026 00005230           CHOPP1
    1027 00005230     4c01          MOVE    A0,A1
    1028 00005240     4d20          MOVE    A9,A0
    1029 00005250     0d5f          CALLA   GETA11
         00005260 00000000! 
    1030 00005280     ca09          JRZ     CHOPPX
    1031 00005290     142b          DEC     A11
    1032 000052a0     0d5f          CALLA   PUTA11
         000052b0 00000000! 
    1033 000052d0     4d2b          MOVE    A9,A11
    1034 000052e0     4c29          MOVE    A1,A9
    1035 000052f0     4c80          MOVE    A4,A0
    1036 00005300     1500          SUBK    8,A0
    1037 00005310     c0dc          JRUC    CHOPP
    1038 00005320           CHOPPX
    1039 00005320     09ac          MMFM    A12,A9,A11
         00005330     0a00  
    1040 00005340                   RETP
    1041                    
    1042                    **************************************************************************
    1043                    *                                                                        *
    1044                    * CHOPFULL - SET CHOPPER AT FULL POWER                                   *
    1045                    *                                                                        *
    1046                    **************************************************************************
    1047 00005370           CHOPFULL
    1048 00005370     098f          MMTM    SP,A0,A1,A7,A8,A9,A10,A11
         00005380     c1f0  
    1049 00005390     b7a9          MOVE    *A13(ETEMP1),A9,L       ;CHOP LIGHT BLINKER
         000053a0     0180  
    1050 000053b0     b528          MOVE    *A9(OPAL),A8,W          ;CREATE THE PROPER CHOPPER FLASHER
         000053c0     0160  
    1051 000053d0                   CREATE  INDPID,CHOPLITG
    1052 00005450     b209          MOVE    A0,*A9(OPLINK),L
TMS340 COFF Macro Assembler Version 6.10     Sat Apr 10 02:20:27 2021
 Copyright (c) 1985-1991  Texas Instruments Incorporated 

 <<< N  A  R  C  -- THE CHOPPER >>>                                  PAGE   26

         00005460     01f0  
    1053                    
    1054 00005470     09e9          MOVI    ROTORSPN,A9
         00005480 00008240' 
    1055 000054a0     182b          MOVK    1,A11                   ;BLADE SPEED (SLEEP TIME)
    1056 000054b0     b7a8          MOVE    *A13(ETEMP5),A8,L
         000054c0     0200  
    1057 000054d0                   CREATE  INDPID,ANIMATOR
    1058 00005550     b208          MOVE    A0,*A8(OPLINK),L
         00005560     01f0  
    1059 00005570     09e9          MOVI    BLADESPN,A9
         00005580 00008160' 
    1060 000055a0     182b          MOVK    1,A11
    1061 000055b0     b7a8          MOVE    *A13(ETEMP4),A8,L
         000055c0     01e0  
    1062 000055d0     b7aa          MOVE    *A13(BMIRROR),A10,L
         000055e0     0240  
    1063 000055f0                   CREATE  INDPID,ANIMATE2
    1064 00005670     b208          MOVE    A0,*A8(OPLINK),L
         00005680     01f0  
    1065 00005690     b20a          MOVE    A0,*A10(OPLINK),L
         000056a0     01f0  
    1066 000056b0     09af          MMFM    SP,A0,A1,A7,A8,A9,A10,A11
         000056c0     0f83  
    1067 000056d0     0960          RETS
    1068                    *
    1069                    *SLEEP A0, CALL CARSCAN EVERY FRAME
    1070                    
    1071 000056e0           CHPSLP
    1072 000056e0     0d3f          CALLR   CARSCAN
         000056f0     000d  
    1073 00005700     098c          MMTM    A12,A0
         00005710     8000  
    1074 00005720                   SLEEP   1
    1075 00005760     09ac          MMFM    A12,A0
         00005770     0001  
    1076 00005780     1420          DEC     A0
    1077 00005790     cbf4          JRNE    CHPSLP
    1078 000057a0                   RETP
    1079                    *
    1080                    *SCAN FOR CAR COLISSION ON GROUND
    1081                    *A8=CHOPPER PILOT
    1082 000057d0           CARSCAN
    1083 000057d0     098f          MMTM    SP,A0,A1,A2,A3,A4,A5,A6,A7,A8
         000057e0     ff80  
    1084 000057f0     07a0          MOVE    @CARLIST,A0,L
         00005800 00000000! 
    1085 00005820     ca1d          JREQ    CSCLX
    1086 00005830           CSCL1
    1087 00005830     b401          MOVE    *A0(OID),A1,W
         00005840     01a0  
    1088 00005850     0b41          CMPI    TRAN1OID|CBODYID,A1
         00005860     f3cf  
    1089 00005870     cb15          JRNE    CSCLP
    1090                    
TMS340 COFF Macro Assembler Version 6.10     Sat Apr 10 02:20:27 2021
 Copyright (c) 1985-1991  Texas Instruments Incorporated 

 <<< N  A  R  C  -- THE CHOPPER >>>                                  PAGE   27

    1091 00005880     09c1          MOVI    0,A1            ;X OFFSET
         00005890     0000  
    1092 000058a0     09c3          MOVI    0,A3            ;Z OFFSET
         000058b0     0000  
    1093 000058c0     09c5          MOVI    100,A5          ;X RANGE
         000058d0     0064  
    1094 000058e0     09c6          MOVI    16,A6           ;Z RANGE
         000058f0     0010  
    1095 00005900     0d5f          CALLA   XZCNTCK
         00005910 00000000! 
    1096 00005930     c909          JRNC    CSCLP
    1097 00005940     4c08          MOVE    A0,A8           ;A8=THING THAT HIT CHOPPER
    1098 00005950                   CREATE  INDPID,CHOPHIT
    1099 000059d0           CSCLP
    1100 000059d0     b600          MOVE    *A0(OSLINK),A0,L
         000059e0     0020  
    1101 000059f0     cbe3          JRNE    CSCL1
    1102 00005a00           CSCLX
    1103 00005a00     09af          MMFM    SP,A0,A1,A2,A3,A4,A5,A6,A7,A8
         00005a10     01ff  
    1104 00005a20     0960          RETS
    1105                    
    1106 00005a30           CHOPHIT
    1107                    *       CALLR   ROCKBLO
    1108                    *       CALLR   BOMBLO
    1109 00005a30     4d40          MOVE    A10,A0          ;MAIN BODY T0 A0
    1110 00005a40     098f          MMTM    SP,A0,A8
         00005a50     8080  
    1111 00005a60     0d3f          CALLR   CHOPCOLR
         00005a70     01c1  
    1112 00005a80     09af          MMFM    SP,A0,A8
         00005a90     0101  
    1113 00005aa0                   SWAP    A0,A8
    1114 00005ad0     0d5f          CALLA   PCDRIVRC
         00005ae0 00000000! 
    1115 00005b00     c080          JAUC    SUCIDE
         00005b10 00000000! 
    1116                    **************************************************************************
    1117                    *                                                                        *
    1118                    * ANIMATE2 - INDEPENDENT ANIMATION PROCESS OF A MIRRORED IMAGE,          *
    1119                    *          ANIMATES THE SAME SCRIPT UPON TWO DIFFERENT OBJECTS           *
    1120                    *          ONE FLIPPED THE OTHER NOT. OH YEAH, INFINITELY?               *
    1121                    * A8 = OBJECT TO ANIMATE                                                 *
    1122                    * A9 = SCRIPT                                                            *
    1123                    * A10 = MIRROR IMAGE                                                     *
    1124                    * A11 = # OF TICKS PER FRAME                                             *
    1125                    *                                                                        *
    1126                    **************************************************************************
    1127 00005b30           ANIMATE2
    1128 00005b30                   PUSHP   A9              ;SAVE BEGINNING OF SCRIPT
    1129 00005b40           ANIMAT21
    1130 00005b40     4d2e          MOVE    A9,A14
    1131 00005b50     1881          MOVK    4,A1
    1132 00005b60                   JSRP    FRANIM
    1133 00005bd0     c817          JRC     ANIMAT23        ;BR = HIT END OF SCRIPT
TMS340 COFF Macro Assembler Version 6.10     Sat Apr 10 02:20:27 2021
 Copyright (c) 1985-1991  Texas Instruments Incorporated 

 <<< N  A  R  C  -- THE CHOPPER >>>                                  PAGE   28

    1134 00005be0     4dc9          MOVE    A14,A9
    1135 00005bf0                   SWAP    A8,A10
    1136 00005c20                   JSRP    FRANIM          ;ANIMATE THE OTHER HALF
    1137 00005c90                   SWAP    A8,A10
    1138 00005cc0     09e7          MOVI    ANIMAT21,A7
         00005cd0 00005b40' 
    1139 00005cf0     4d60          MOVE    A11,A0
    1140 00005d00     cb01          JRNZ    ANIMAT22        ;NO EXTRA SLEEP
    1141 00005d10     1820          MOVK    1,A0
    1142 00005d20           ANIMAT22
    1143 00005d20     c080          JAUC    PRCLSP          ;SLEEP ADDITIONAL TIME
         00005d30 00000000! 
    1144 00005d50           ANIMAT23        
    1145 00005d50                   PULLP   A9              ;RESTORE LIST POINTER
    1146 00005d70     c0db          JRUC    ANIMATE2
    1147                    
    1148                    **************************************************************************
    1149                    *                                                                        *
    1150                    * CHOPLAND - LAND THE CHOPPER ON THE GROUND.                             *
    1151                    * NOTE: CALL WITH JSRP                                                   *
    1152                    *                                                                        *
    1153                    **************************************************************************
    1154                    *CHOPLAND
    1155                    *       PUSHP   A8
    1156                    *       MOVI    [1,0],A1
    1157                    *       CALLA   CARYVEL
    1158                    *       MOVE    *A13(ETEMP1),A8,L
    1159                    *CHOPLND1
    1160                    *       SLEEP   3
    1161                    *       CALLA   DFRMGRND
    1162                    *       JRGT    CHOPLND1
    1163                    *       PULLP   A8
    1164                    *       CALLR   CHOPSETZ                ;RESET THE CHOPPER Z FOR YUCKS
    1165                    *       CLR     A1      
    1166                    *       CALLA   CARYVEL
    1167                    *       RETP
    1168                    *
    1169                    **************************************************************************
    1170                    *                                                                        *
    1171                    * CHOPSHAD - MAKE A CHOPPER SHADOW                                       *
    1172                    *                                                                        *
    1173                    **************************************************************************
    1174 00005d80           CHOPSHAD
    1175 00005d80     098f          MMTM    SP,A0,A8
         00005d90     8080  
    1176 00005da0     b7a8          MOVE    *A13(ETEMP4),A8,L       ;FIRST HALF OF BLADE
         00005db0     01e0  
    1177 00005dc0     ca09          JRZ     CHOPSHADX               ;BR = NO BLADE
    1178 00005dd0     0d5f          CALLA   SHADST
         00005de0 00000000! 
    1179 00005e00     b7a8          MOVE    *A13(BMIRROR),A8,L      ;MIRRORED HALF OF BLADE
         00005e10     0240  
    1180 00005e20     ca03          JRZ     CHOPSHADX
    1181 00005e30     0d5f          CALLA   SHADST
         00005e40 00000000! 
TMS340 COFF Macro Assembler Version 6.10     Sat Apr 10 02:20:27 2021
 Copyright (c) 1985-1991  Texas Instruments Incorporated 

 <<< N  A  R  C  -- THE CHOPPER >>>                                  PAGE   29

    1182 00005e60           CHOPSHADX
    1183 00005e60     09af          MMFM    SP,A0,A8
         00005e70     0101  
    1184 00005e80     0960          RETS
    1185                    **************************************************************************
    1186                    *                                                                        *
    1187                    * CHOPXACC - START CHOPPER X ACCELERATION PROCESS. IT WILL               *
    1188                    *         TAKE CARE OF FLIPPED VEHICLES                                  *
    1189                    * A8 = PTR TO PILOT                                                      *
    1190                    * A9 = ABS(ACCELERATION FACTOR/TICK), 32 BITS                            *
    1191                    * A10 = PTR TO CHOPPER                                                   *
    1192                    * A11 = ABS(TERMINAL VELOCITY), 32 BITS                                  *
    1193                    * A13 = PTR TO CHOPPER PROCESS                                           *
    1194                    * RETURNS:                                                               *
    1195                    * A0 = PTR TO PROC. (= 0 IF FAILED)                                      *
    1196                    * A9 = VALUE PASSED                                                      *
    1197                    * A11 = VALUE PASSED                                                     *
    1198                    * Z BIT SET IF IT FAILED                                                 *
    1199                    *                                                                        *
    1200                    **************************************************************************
    1201 00005e90           CHOPXACC
    1202 00005e90     098f          MMTM    SP,A1,A7
         00005ea0     4100  
    1203 00005eb0     0d5f          CALLA   KILLCARP
         00005ec0 00000000! 
    1204 00005ee0     b541          MOVE    *A10(OFLAGS),A1,W       
         00005ef0     0100  
    1205 00005f00     1f61          BTST    B_FLIPH,A1
    1206 00005f10     ca02          JREQ    CHOPACC1
    1207 00005f20     03ab          NEG     A11
    1208 00005f30     03a9          NEG     A9
    1209 00005f40           CHOPACC1
    1210 00005f40                   CREATE  INDPID,CHOPXAPR
    1211 00005fc0     ca02          JRZ     CHOPACCX
    1212 00005fd0     b3a0          MOVE    A13,*A0(PDATA),L
         00005fe0     0060  
    1213 00005ff0           CHOPACCX
    1214 00005ff0     b20d          MOVE    A0,*A13(ETEMP),L
         00006000     0060  
    1215 00006010     09af          MMFM    SP,A1,A7
         00006020     0082  
    1216 00006030     0960          RETS
    1217                    **************************************************************************
    1218                    *                                                                        *
    1219                    * CHOPXAPRM - PROCESS TO ACCELERATE AN OBJECT BY SOME CONSTANT.          *
    1220                    * A8 = PTR TO DRIVER                                                     *
    1221                    * A9 = ACCELERATION FACTOR/TICK                                          *
    1222                    * A10 = PTR TO VEHICLE                                                   *
    1223                    * A11 = TERMINAL VELOCITY, 32 BITS                                       *
    1224                    * *A13(PDATA) = PTR TO VEHICLE CONTROL PROCESS                           *
    1225                    *                                                                        *
    1226                    **************************************************************************
    1227 00006040           CHOPXAPR
    1228 00006040     b741          MOVE    *A10(OXVEL),A1,L
         00006050     0040  
TMS340 COFF Macro Assembler Version 6.10     Sat Apr 10 02:20:27 2021
 Copyright (c) 1985-1991  Texas Instruments Incorporated 

 <<< N  A  R  C  -- THE CHOPPER >>>                                  PAGE   30

    1229 00006060     4121          ADD     A9,A1
    1230 00006070     4c22          MOVE    A1,A2
    1231 00006080     4d63          MOVE    A11,A3
    1232 00006090     0382          ABS     A2
    1233 000060a0     0383          ABS     A3
    1234 000060b0     4843          CMP     A2,A3
    1235 000060c0     c20e          JRLS    CHOPXAPX
    1236                    
    1237 000060d0     4fa0          MOVE    A13,B0  
    1238 000060e0     b7ad          MOVE    *A13(PDATA),A13,L
         000060f0     0060  
    1239 00006100     0d5f          CALLA   CARXVEL
         00006110 00000000! 
    1240 00006130     4e1d          MOVE    B0,A13
    1241 00006140                   SLOOP   1,CHOPXAPR
    1242 000061b0           CHOPXAPX
    1243 000061b0     4d61          MOVE    A11,A1
    1244 000061c0     4fa0          MOVE    A13,B0  
    1245 000061d0     b7ad          MOVE    *A13(PDATA),A13,L
         000061e0     0060  
    1246 000061f0     0d5f          CALLA   CARXVEL
         00006200 00000000! 
    1247 00006220     5621          CLR     A1
    1248 00006230     b22d          MOVE    A1,*A13(ETEMP),L
         00006240     0060  
    1249 00006250     4e1d          MOVE    B0,A13
    1250 00006260                   DIE
    1251                    
    1252                    **************************************************************************
    1253                    *                                                                        *
    1254                    * CHOPEXP - CHOPPER EXPLOSION PROCESS                                    *
    1255                    * A8 = CHOPPER BOTTOM OBJECT                                     *
    1256                    * A9 = OID OF ROCKET                                                     *
    1257                    * A10= BOTTOM BODY
    1258                    * A11= CHOPPER TOP
    1259                    * I.D. = $ED                                                             *
    1260                    **************************************************************************
    1261 00006290           CHOPEXP
    1262 00006290     0d5f          CALLA   PSTOPYZ
         000062a0 00000000! 
    1263 000062c0     b504          MOVE    *A8(OFLAGS),A4,W                ;NEW BOTTOM BODY
         000062d0     0100  
    1264 000062e0     09e1          MOVI    cark3,A1
         000062f0 00000580" 
    1265 00006310     0d5f          CALLA   ANI
         00006320 00000000! 
    1266 00006340     4d0a          MOVE    A8,A10
    1267 00006350     4d68          MOVE    A11,A8
    1268 00006360     0d5f          CALLA   PSTOPYZ
         00006370 00000000! 
    1269 00006390     b504          MOVE    *A8(OFLAGS),A4,W                ;NEW TOP BODY
         000063a0     0100  
    1270 000063b0     09e1          MOVI    cark4,A1
         000063c0 00000600" 
    1271 000063e0     0d5f          CALLA   ANI
TMS340 COFF Macro Assembler Version 6.10     Sat Apr 10 02:20:27 2021
 Copyright (c) 1985-1991  Texas Instruments Incorporated 

 <<< N  A  R  C  -- THE CHOPPER >>>                                  PAGE   31

         000063f0 00000000! 
    1272 00006410     09e0          MOVI    020000H,A0
         00006420 00020000  
    1273 00006440     b741          MOVE    *A10(OXVEL),A1,L                ;DECAY XVEL
         00006450     0040  
    1274 00006460     2be1          SRA     1,A1
    1275 00006470     b22a          MOVE    A1,*A10(OXVEL),L
         00006480     0040  
    1276 00006490     b22b          MOVE    A1,*A11(OXVEL),L
         000064a0     0040  
    1277 000064b0     c009          JRUC    FALLP1
    1278 000064c0           FALLP:
    1279 000064c0                   SLEEP   3
    1280 00006500     b740          MOVE    *A10(OYVEL),A0,L                ;EFFECT OF GRAVITY
         00006510     0060  
    1281 00006520     0b20          ADDI    00C000H,A0
         00006530 0000c000  
    1282 00006550           FALLP1:
    1283 00006550     b20a          MOVE    A0,*A10(OYVEL),L
         00006560     0060  
    1284 00006570     b20b          MOVE    A0,*A11(OYVEL),L
         00006580     0060  
    1285 00006590     cef2          JRN     FALLP
    1286 000065a0     4d48          MOVE    A10,A8
    1287 000065b0     0d5f          CALLA   DFRMGRND
         000065c0 00000000! 
    1288 000065e0     c7ed          JRGT    FALLP                           ;IN THE AIR STILL
    1289 000065f0     2e20          SRL     15,A0                           ;COLLAPSE RANDOM = 2X VEL
    1290 00006600     0d5f          CALLA   RANDU
         00006610 00000000! 
    1291 00006630     1100          ADDK    8,A0
    1292 00006640     b561          MOVE    *A11(OYPOS),A1,W
         00006650     00b0  
    1293 00006660     4001          ADD     A0,A1
    1294 00006670     b542          MOVE    *A10(OYPOS),A2,W
         00006680     00b0  
    1295 00006690     0be2          SUBI    3,A2
         000066a0     fffc  
    1296 000066b0     4841          CMP     A2,A1
    1297 000066c0     c201          JRLS    FALLP10
    1298 000066d0     4c41          MOVE    A2,A1
    1299 000066e0           FALLP10 
    1300 000066e0     b02b          MOVE    A1,*A11(OYPOS),W                ;COLLAPSE THE SUCKER
         000066f0     00b0  
    1301 00006700     0d3f          CALLR   CHOPBLO                         ;MAKE AN EXPLOSION ON HIT
         00006710     0048  
    1302 00006720     b741          MOVE    *A10(OXVEL),A1,L                ;DECAY XVEL
         00006730     0040  
    1303 00006740     2be1          SRA     1,A1
    1304 00006750     b22a          MOVE    A1,*A10(OXVEL),L
         00006760     0040  
    1305 00006770     b22b          MOVE    A1,*A11(OXVEL),L
         00006780     0040  
    1306 00006790     b740          MOVE    *A10(OYVEL),A0,L                ;EFFECT OF GRAVITY
         000067a0     0060  
TMS340 COFF Macro Assembler Version 6.10     Sat Apr 10 02:20:27 2021
 Copyright (c) 1985-1991  Texas Instruments Incorporated 

 <<< N  A  R  C  -- THE CHOPPER >>>                                  PAGE   32

    1307 000067b0     09e1          MOVI    0A0000000H,A1                   ;BOUNCE EFFECT  RATIO
         000067c0 a0000000  
    1308 000067e0     5e20          MPYU    A1,A0
    1309 000067f0     03a0          NEG     A0
    1310 00006800     0b60          CMPI    0FFFD8000H,A0
         00006810 00027fff  
    1311 00006830     c4d1          JRLT    FALLP1
    1312 00006840     5600          CLR     A0
    1313 00006850     b20a          MOVE    A0,*A10(OYVEL),L
         00006860     0060  
    1314 00006870     b20a          MOVE    A0,*A10(OXVEL),L
         00006880     0040  
    1315 00006890     b20b          MOVE    A0,*A11(OYVEL),L
         000068a0     0060  
    1316 000068b0     b20b          MOVE    A0,*A11(OXVEL),L
         000068c0     0040  
    1317 000068d0     4d48          MOVE    A10,A8
    1318 000068e0                   SLEEP   30                      ;CHECK OUT CARCASS
    1319 00006920                   CREATE  0EDH,SINKCHOP
    1320 000069a0     4d68          MOVE    A11,A8
    1321 000069b0           FALLP2
    1322 000069b0     b500          MOVE    *A8(OYPOS),A0,W
         000069c0     00b0  
    1323 000069d0     1020          ADDK    1,A0
    1324 000069e0     b008          MOVE    A0,*A8(OYPOS),W
         000069f0     00b0  
    1325 00006a00     0d5f          CALLA   DFRMGRND
         00006a10 00000000! 
    1326 00006a30     c605          JRLE    SINKCHOP
    1327 00006a40                   SLEEP   1
    1328 00006a80     c0f2          JRUC    FALLP2
    1329                    
    1330 00006a90           SINKCHOP
    1331 00006a90     09e9          MOVI    [1,1],A9
         00006aa0 00010001  
    1332 00006ac0                   JSRP    OSINK
    1333 00006b30     4d0a          MOVE    A8,A10                  ;GET OBJECT DESCRIPTOR
    1334 00006b40     0d5f          CALLA   DELCBODY                ;DELETE CAR BODY OBJECT AND QUIT
         00006b50 00000000! 
    1335 00006b70                   DIE
    1336                    *
    1337                    *MAKE A LITTLE NUKE WHEN CHOPPER HITS THE GROUND
    1338                    *
    1339                    *NEXPLODE - NUCLEAR EXPLOSION THANG
    1340                    *A9 = OFLAGS:OZPOS OF ROCKET
    1341                    *A10 = OID OF ROCKET
    1342                    *A11 = YX POSITION OF ROCKET
    1343                    *ENTER HERE FOR AIR BOMB
    1344 00006ba0           CHOPBLO
    1345 00006ba0     098f          MMTM    SP,A0,A8,A9,A10,A11
         00006bb0     80f0  
    1346 00006bc0     b502          MOVE    *A8(OZPOS),A2,W         ;LAND MINE Z
         00006bd0     00d0  
    1347 00006be0     1022          INC     A2                      ;MAKE HIM IN FRONT OF CHOPPER
    1348 00006bf0     b509          MOVE    *A8(OFLAGS),A9,W
TMS340 COFF Macro Assembler Version 6.10     Sat Apr 10 02:20:27 2021
 Copyright (c) 1985-1991  Texas Instruments Incorporated 

 <<< N  A  R  C  -- THE CHOPPER >>>                                  PAGE   33

         00006c00     0100  
    1349 00006c10     2609          SLL     16,A9
    1350 00006c20     ec49          MOVX    A2,A9                   ;A9 = OFLAGS:OZPOS
    1351 00006c30     0d5f          CALLA   GETANIX
         00006c40 00000000! 
    1352 00006c60     4c0b          MOVE    A0,A11
    1353 00006c70     1bc0          MOVK    30,A0
    1354 00006c80     0d5f          CALLA   SRAND
         00006c90 00000000! 
    1355 00006cb0     400b          ADD     A0,A11
    1356 00006cc0     b702          MOVE    *A8(OYPOS),A2,L
         00006cd0     00b0  
    1357 00006ce0     b703          MOVE    *A8(OSIZEY),A3,L
         00006cf0     0150  
    1358 00006d00     4062          ADD     A3,A2
    1359 00006d10     0be2          SUBI    3,A2                    ;FUDGE FACTOR
         00006d20     fffc  
    1360 00006d30     2602          SLL     16,A2
    1361 00006d40     ee4b          MOVY    A2,A11
    1362 00006d50     09e7          MOVI    NEXPLODE,A7             ;NORMAL EXPLOSION
         00006d60 00000000! 
    1363 00006d80     09c1          MOVI    REXPID,A1               ;EXPROSION PROCESS I.D. 
         00006d90     0300  
    1364 00006da0     09ca          MOVI    BEOID|BOMBID,A10
         00006db0     0be6  
    1365 00006dc0     0d5f          CALLA   GETPRC                  ;CREATE THE ROCKET EXPLOSION
         00006dd0 00000000! 
    1366 00006df0     09af          MMFM    SP,A0,A8,A9,A10,A11
         00006e00     0f01  
    1367 00006e10     0960          RETS
    1368                    *
    1369                    *BLOW THE PILOT PROCESS
    1370                    *A8=PILOT
    1371 00006e20           PILBLO
    1372 00006e20     0d5f          CALLA   PSTOPYZ
         00006e30 00000000! 
    1373 00006e50     09e0          MOVI    028000H,A0
         00006e60 00028000  
    1374 00006e80     0d5f          CALLA   SRAND
         00006e90 00000000! 
    1375 00006eb0     b701          MOVE    *A8(OXVEL),A1,L         ;DECAY XVEL + ADD RANDOM
         00006ec0     0040  
    1376 00006ed0     2be1          SRA     1,A1
    1377 00006ee0     4001          ADD     A0,A1
    1378 00006ef0     b228          MOVE    A1,*A8(OXVEL),L
         00006f00     0040  
    1379 00006f10     09e0          MOVI    030000H,A0
         00006f20 00030000  
    1380 00006f40     0d5f          CALLA   RANDU
         00006f50 00000000! 
    1381 00006f70     0b20          ADDI    0FFFC0000H,A0
         00006f80 fffc0000  
    1382 00006fa0     b208          MOVE    A0,*A8(OYVEL),L         ;Y VEL
         00006fb0     0060  
    1383 00006fc0     b50a          MOVE    *A8(OXPOS),A10,W        ;SAVE OLD POSITION      
TMS340 COFF Macro Assembler Version 6.10     Sat Apr 10 02:20:27 2021
 Copyright (c) 1985-1991  Texas Instruments Incorporated 

 <<< N  A  R  C  -- THE CHOPPER >>>                                  PAGE   34

         00006fd0     0090  
    1384 00006fe0     b50b          MOVE    *A8(OYPOS),A11,W
         00006ff0     00b0  
    1385 00007000     09e9          MOVI    LOFDEXP,A9
         00007010 00000000! 
    1386 00007030     1881          MOVK    4,A1
    1387 00007040                   JSRP    FRANIM
    1388 000070b0     b148          MOVE    A10,*A8(OXPOS),W        ;PUT HIM IN SAME OLD SPOT
         000070c0     0090  
    1389 000070d0     b168          MOVE    A11,*A8(OYPOS),W
         000070e0     00b0  
    1390 000070f0           PILBLO1
    1391 000070f0     09e9          MOVI    LOFDEXP,A9
         00007100 00000000! 
    1392 00007120           PILBLP
    1393 00007120     1881          MOVK    4,A1
    1394 00007130                   JSRP    FRANIM
    1395 000071a0     c8f4          JRC     PILBLO1
    1396 000071b0     b700          MOVE    *A8(OYVEL),A0,L         ;DECREASE Y VELOCITY
         000071c0     0060  
    1397 000071d0     0b00          ADDI    GRAVITY,A0
         000071e0     2400  
    1398 000071f0     b208          MOVE    A0,*A8(OYVEL),L
         00007200     0060  
    1399 00007210     ce04          JRN     PILBL2
    1400 00007220     0d5f          CALLA   DFRMGRND                ;DID HE HIT THE GROUND?
         00007230 00000000! 
    1401 00007250     c607          JRLE    PILHIT                  ;BR = YES
    1402 00007260           PILBL2
    1403 00007260                   SLOOP   3,PILBLP
    1404 000072d0           PILHIT
    1405 000072d0     0d5f          CALLA   PSTOP
         000072e0 00000000! 
    1406 00007300     09e9          MOVI    LDEXP1,A9               ;GET BURN FRAMES
         00007310 00000000! 
    1407 00007330     0d5f          CALLA   GETANIXY                ;GET THE ANIMATION POINT
         00007340 00000000! 
    1408                    
    1409 00007360     0d02          SUBI    [50H,0],A2              ;OFFSET TO Y
         00007370 ffafffff  
    1410                    
    1411 00007390     b504          MOVE    *A8(OFLAGS),A4,W                                         
         000073a0     0100  
    1412 000073b0     0b84          ANDNI   M_FLIPV,A4              ;NO UPSIDE-DOWN FIRES ALLOWED    
         000073c0 00000020  
    1413 000073e0     1f64          BTST    B_FLIPH,A4
    1414 000073f0     ca03          JREQ    PILBL4                  ;NON-CENTERED A-POINTS ARE A B-I-T-C-H
    1415 00007400     0d03          SUBI    [60H,0],A3
         00007410 ff9fffff  
    1416 00007430           PILBL4
    1417 00007430     0b23          ADDI    [30H,0],A3
         00007440 00300000  
    1418                    
    1419 00007460                   SOUND1  SIZZSND                 ;SIZZLE,SIZZLE, TOIL AND GRIZZLE
    1420 000074c0     4d00          MOVE    A8,A0
TMS340 COFF Macro Assembler Version 6.10     Sat Apr 10 02:20:27 2021
 Copyright (c) 1985-1991  Texas Instruments Incorporated 

 <<< N  A  R  C  -- THE CHOPPER >>>                                  PAGE   35

    1421 000074d0     0d5f          CALLA   GANISAG                 ;SHOW THE NEW ADJUSTMENTS
         000074e0 00000000! 
    1422 00007500     1821          MOVK    1,A1
    1423 00007510                   JSRP    FRANIM                  ;ANIMATE THE REST S.V.P.
    1424 00007580     09e9          MOVI    [1,1],A9
         00007590 00010001  
    1425 000075b0     c080          JAUC    ESINK           ;BAIL OUT OF HERE
         000075c0 00000000! 
    1426                    **************************************************************************
    1427                    *                                                                        *
    1428                    * TAILCOLR - CHOPPER TAIL SECTIONS, COLLISION WITH ROCKET BOMB           *
    1429                    * A0 = PTR TO TAIL SECTION                                               *
    1430                    * A8 = PTR TO ROCKET BOMB                                                *
    1431                    *                                                                        *
    1432                    **************************************************************************
    1433 000075e0           PILCOLR
    1434 000075e0     b600          MOVE    *A0(OPLINK),A0,L        ;PILOT KILL
         000075f0     01f0  
    1435 00007600     c004          JRUC    CHOPCOL0
    1436 00007610           TAILCOLR
    1437 00007610     0d5f          CALLA   FINDMVP                 ;GET THE MASTER VEHICLE PROCESS
         00007620 00000000! 
    1438 00007640     ca63          JRZ     CHOPCOLRX
    1439 00007650           CHOPCOL0
    1440 00007650     0d5f          CALLA   GETA10                  ;GET THE PTR TO THE MAIN
         00007660 00000000! 
    1441 00007680     4d40          MOVE    A10,A0
    1442                    **************************************************************************
    1443                    *                                                                        *
    1444                    * CHOPCOLR - CHOPPER MAIN, COLLISION WITH ROCKET BOMB                    *
    1445                    * A0 = PTR TO CHOPPER MAIN                                               *
    1446                    * A8 = PTR TO OBJECT THAT HIT IT                                         *
    1447                    *                                                                        *
    1448                    **************************************************************************
    1449 00007690           CHOPCOLR
    1450 00007690     b50b          MOVE    *A8(OID),A11,W          ;GET KILLERS I.D.
         000076a0     01a0  
    1451 000076b0     b600          MOVE    *A0(OPLINK),A0,L        ;GET THE PROCESS
         000076c0     01f0  
    1452 000076d0     0d5f          CALLA   GETA8                   ;GET THE DRIVER PTR
         000076e0 00000000! 
    1453 00007700     0d5f          CALLA   GETA10                  ;PRESERVE CORRECT STATE FOR CDELALL
         00007710 00000000! 
    1454 00007730                   PUSH    A0
    1455                    
    1456 00007740     0d5f          CALLA   OIDATA                  ;GET PLAYER DATA FROM OID
         00007750 00000000! 
    1457 00007770     c808          JRC     CHOPCLR0                ;NOT A PLAYER KILL
    1458 00007780     09c1          MOVI    05000H,A1
         00007790     5000  
    1459 000077a0     0d5f          CALLA   SCORE
         000077b0 00000000! 
    1460 000077d0     0d5f          CALLA   PUT5K                   ;DO A FLOATER
         000077e0 00000000! 
    1461 00007800           CHOPCLR0
TMS340 COFF Macro Assembler Version 6.10     Sat Apr 10 02:20:27 2021
 Copyright (c) 1985-1991  Texas Instruments Incorporated 

 <<< N  A  R  C  -- THE CHOPPER >>>                                  PAGE   36

    1462 00007800                   CREATE  0EDH,PILBLO             ;CREATE PILOT BLOW PROCESS
    1463 00007880     18c0          MOVK    6,A0
    1464 00007890     0d5f          CALLA   RANDU
         000078a0 00000000! 
    1465 000078c0     1080          ADDK    4,A0
    1466 000078d0     4c06          MOVE    A0,A6
    1467 000078e0           CHOPDRP:
    1468 000078e0                   CREATE  0EAH,DROPDRUG           ;CREATE A DRUG DROPPING
    1469 00007960     3d26          DSJS    A6,CHOPDRP
    1470                    
    1471 00007970                   PULL    A0
    1472 00007990                   PUSH    A13
    1473 000079a0     4c0d          MOVE    A0,A13
    1474 000079b0     b7ab          MOVE    *A13(ETEMP2),A11,L      ;SAVE THE TAIL PART     IN A11
         000079c0     01a0  
    1475 000079d0     57ce          CLR     A14
    1476 000079e0     b3cd          MOVE    A14,*A13(ETEMP2),L      ;DONT DELETE IT
         000079f0     01a0  
    1477 00007a00     09ee          MOVI    DUMCOLL,A14
         00007a10 00000000! 
    1478 00007a30     b3ca          MOVE    A14,*A10(OCVECT),L      ;COLLISION POINTER NULL FOR NOW
         00007a40     01d0  
    1479 00007a50     b3cb          MOVE    A14,*A11(OCVECT),L      ;COLLISION POINTER NULL FOR NOW
         00007a60     01d0  
    1480 00007a70     b3c8          MOVE    A14,*A8(OCVECT),L       ;COLLISION POINTER NULL FOR NOW
         00007a80     01d0  
    1481 00007a90     5708          CLR     A8                      ;DONT DELETE PILOT
    1482 00007aa0     0d5f          CALLA   CDELALL                 ;DELETE ALL CHOPPER PARTS
         00007ab0 00000000! 
    1483 00007ad0                   PULL    A13
    1484 00007af0     0d5f          CALLA   KILL
         00007b00 00000000! 
    1485 00007b20     4d48          MOVE    A10,A8                  ;AND PASS IT TO THE PROCESS
    1486 00007b30                   CREATE  0EDH,CHOPEXP            ;CREATE THE CHOPPER EXPLODE PROC.
    1487 00007bb0     09e0          MOVI    YAMOFF,A0
         00007bc0 00000000! 
    1488 00007be0     0d5f          CALLA   ONESND                  ;TURN OFF THE CAR IDLE SOUND
         00007bf0 00000000! 
    1489 00007c10     05a0          MOVE    @CHOPCNT,A0,W
         00007c20 00000000! 
    1490 00007c40     1420          DEC     A0
    1491 00007c50     0580          MOVE    A0,@CHOPCNT,W
         00007c60 00000000! 
    1492 00007c80           CHOPCOLRX
    1493 00007c80     5600          CLR     A0
    1494 00007c90     0320          CLRC
    1495 00007ca0     0960          RETS
    1496                    ***************************************************
    1497                    *CHOPPER HIT BY BULLET
    1498                    *
    1499                    * A0 = PTR TO CHOPPER MAIN                                       *
    1500                    * A8 = PTR TO OBJECT THAT HIT IT                                         *
    1501                    ***************************************************
    1502 00007cb0           CHOPBUL:
    1503 00007cb0     b601          MOVE    *A0(OPLINK),A1,L        ;GET THE PROCESS
TMS340 COFF Macro Assembler Version 6.10     Sat Apr 10 02:20:27 2021
 Copyright (c) 1985-1991  Texas Instruments Incorporated 

 <<< N  A  R  C  -- THE CHOPPER >>>                                  PAGE   37

         00007cc0     01f0  
    1504 00007cd0     ae22           MOVB   *A1(ECLIP),A2
         00007ce0     0158  
    1505 00007cf0     1422          DEC     A2                      ;DECREMENT BULLET COUNT
    1506 00007d00     ac41          MOVB    A2,*A1(ECLIP)
         00007d10     0158  
    1507 00007d20     ce96          JRN     CHOPCOLR                ;BLOW THE DUDE
    1508 00007d30     0320          CLRC
    1509 00007d40     0960          RETS
    1510                    **************************************************************************
    1511                    *                                                                        *
    1512                    * P_GROUND - CHECK IF CHOPPER IS ON THE GROUND.                          *
    1513                    * A13 = PTR TO CHOPPER PROCESS                                           *
    1514                    * RETURNS:                                                               *
    1515                    *       C BIT SET ON GROUND                                              *
    1516                    *       C BIT CLR IN AIR                                                 *
    1517                    *                                                                        *
    1518                    **************************************************************************
    1519 00007d50           P_GROUND
    1520 00007d50     098f          MMTM    SP,A1,A8
         00007d60     4080  
    1521 00007d70     b7a8          MOVE    *A13(ETEMP1),A8,L
         00007d80     0180  
    1522 00007d90     ca08          JRZ     P_GROUNDN               ;NO SKIDS, MUST BE AIRBORN
    1523 00007da0     0d5f          CALLA   DFRMGRND
         00007db0 00000000! 
    1524 00007dd0     c704          JRGT    P_GROUNDN
    1525 00007de0     0de0          SETC                            ;FLAG ON THE GROUND
    1526 00007df0           P_GROUNDX
    1527 00007df0     09af          MMFM    SP,A1,A8
         00007e00     0102  
    1528 00007e10     0960          RETS
    1529 00007e20           P_GROUNDN
    1530 00007e20     0320          CLRC                            ;FLAG IN AIR
    1531 00007e30     c0fb          JRUC    P_GROUNDX
    1532                    
    1533                    **************************************************************************
    1534                    *                                                                        *
    1535                    * P_TOP - CHECK IF CHOPPER IS AT THE TOP OF THE WORLD.                   *
    1536                    * A10 = PTR TO CHOPPER MAIN.                                             *
    1537                    * RETURNS:                                                               *
    1538                    *       C BIT SET ON TOP                                                 *
    1539                    *       C BIT CLR NOT ON TOP                                             *
    1540                    *                                                                        *
    1541                    **************************************************************************
    1542 00007e40           P_TOP
    1543 00007e40     098f          MMTM    SP,A1,A2
         00007e50     6000  
    1544 00007e60     b541          MOVE    *A10(OYPOS),A1,W        
         00007e70     00b0  
    1545 00007e80     05a2          MOVE    @WORLDTLY+16,A2,W
         00007e90 00000010! 
    1546 00007eb0     0b02          ADDI    SKYTOPOF,A2
         00007ec0     0050  
    1547 00007ed0     4841          CMP     A2,A1
TMS340 COFF Macro Assembler Version 6.10     Sat Apr 10 02:20:27 2021
 Copyright (c) 1985-1991  Texas Instruments Incorporated 

 <<< N  A  R  C  -- THE CHOPPER >>>                                  PAGE   38

    1548 00007ee0     c704          JRGT    P_TOPN
    1549 00007ef0     0de0          SETC                            ;FLAG AT THE TOP
    1550 00007f00           P_TOPX
    1551 00007f00     09af          MMFM    SP,A1,A2
         00007f10     0006  
    1552 00007f20     0960          RETS
    1553 00007f30           P_TOPN
    1554 00007f30     0320          CLRC                            ;FLAG O.K.
    1555 00007f40     c0fb          JRUC    P_TOPX
    1556                    
    1557                    *
    1558                    *COLLISION LISTS
    1559                    *CHOPPER BODY
    1560 00007f50           CHOPCOLL
    1561 00007f50     0b10          .WORD   B1OID|BULLETID
    1562 00007f60 00007cb0'         .LONG   CHOPBUL
    1563 00007f80     0b20          .WORD   B2OID|BULLETID
    1564 00007f90 00007cb0'         .LONG   CHOPBUL
    1565 00007fb0     0b14          .WORD   B1OID|ROCKETID
    1566 00007fc0 00007690'         .LONG   CHOPCOLR
    1567 00007fe0     0b24          .WORD   B2OID|ROCKETID
    1568 00007ff0 00007690'         .LONG   CHOPCOLR
    1569 00008010     0000          .WORD   0
    1570 00008020 00000000!         .LONG   DUMRTSG
    1571                    *PILOT
    1572 00008040           PILCOLL
    1573 00008040     0b14          .WORD   B1OID|ROCKETID
    1574 00008050 000075e0'         .LONG   PILCOLR
    1575 00008070     0b24          .WORD   B2OID|ROCKETID
    1576 00008080 000075e0'         .LONG   PILCOLR
    1577 000080a0     0000          .WORD   0
    1578 000080b0 00000000!         .LONG   DUMRTSG
    1579                    *OTHER PIECES
    1580 000080d0           TAILCOLL
    1581 000080d0     0b14          .WORD   B1OID|ROCKETID
    1582 000080e0 00007610'         .LONG   TAILCOLR
    1583 00008100     0b24          .WORD   B2OID|ROCKETID
    1584 00008110 00007610'         .LONG   TAILCOLR
    1585 00008130     0000          .WORD   0
    1586 00008140 00000000!         .LONG   DUMRTSG
    1587                    
    1588 00008160           D3TAB
    1589 00008160           BLADESPN                        ;CHOPPER BLADE ROTATE ANIMATION
    1590 00008160 00000380"         .LONG   spin1
    1591 00008180     0001          .WORD   1
    1592 00008190 00000400"         .LONG   spin2
    1593 000081b0     0001          .WORD   1
    1594 000081c0 00000480"         .LONG   spin3
    1595 000081e0     0001          .WORD   1
    1596 000081f0 00000500"         .LONG   spin4
    1597 00008210     0001          .WORD   1
    1598 00008220 00000000          .LONG   0
    1599                    
    1600 00008240           ROTORSPN                        ;CHOPPER ROTOR ROTATE ANIMATION
    1601 00008240 00000200"         .LONG   fana
TMS340 COFF Macro Assembler Version 6.10     Sat Apr 10 02:20:27 2021
 Copyright (c) 1985-1991  Texas Instruments Incorporated 

 <<< N  A  R  C  -- THE CHOPPER >>>                                  PAGE   39

    1602 00008260     0001          .WORD   1
    1603 00008270 00000280"         .LONG   fanc
    1604 00008290     0001          .WORD   1
    1605 000082a0 00000300"         .LONG   fane
    1606 000082c0     0001          .WORD   1
    1607 000082d0 00000000          .LONG   0
    1608                    
    1609          0013004f  CHOPILXY EQU    [19,79]         ;CHOPPER PLAYER PILOT FIRING OFFSET
    1610          0017004b  CHOPASXY EQU    [23,75]         ;CHOPPER PLAYER PASSENGER FIRING OFFSET
    1611          0013004f  CHOPILRB EQU    [19,79]         ;CHOPPER PLAYER PASSENGER ROCKET BOMB OFFSET
    1612          0017004b  CHOPASRB EQU    [23,75]         ;CHOPPER PLAYER DRIVER ROCKET BOMB OFFSET
    1613          000e0000  CHOFULL EQU     [14,0]          ;CHOPPER FULL SPEED
    1614              4000  CHOACCEL EQU    [0,4000H]       ;CHOPPER ACCELERATION
    1615              7000  CHOBRAKE EQU    [0,7000H]       ;CHOPPER BRAKING DECEL FACTOR
    1616          fffe0000  CHOYVEL EQU     [-2,0]          ;CHOPPER Y VELOCITY
    1617              2000  CHOYACC EQU     [0,2000H]
    1618          00030000  CHOYFULL EQU    [3,0]
    1619              0002  CHOZERO EQU     2               ;# OF TICKS TO WAIT AT ZERO VELOCITY
    1620              0002  CHOPSLP EQU     2
    1621              0898  CHOPTIME EQU    2200            ;CHOPPER EXISTS FOR THIS MANY TICKS
    1622                    **************************************************************************
    1623                    *                                                                        *
    1624                    * CHOFCOLD - CREATE A FLYABLE CHOPPER.                                   *
    1625                    *                                                                        *
    1626                    **************************************************************************
    1627 000082f0           CHOFCOLD
    1628 000082f0     05a0          MOVE    @PCHOPCNT,A0,W
         00008300 00000000! 
    1629 00008320     cb08          JRNE    CHOPFX                  ;ONLY ONE AT A TIME DUDELY
    1630 00008330                   CREATE  CHOPFPID,CHOPPERF
    1631 000083b0           CHOPFX
    1632 000083b0     0960          RETS
    1633                    
    1634                    **************************************************************************
    1635                    *                                                                        *
    1636                    * CHORCOLD - CREATE A FLYABLE CHOPPER TO THE RIGHT OF THE SCREEN.        *
    1637                    *                                                                        *
    1638                    **************************************************************************
    1639 000083c0           CHORCOLD
    1640 000083c0     05a0          MOVE    @PCHOPCNT,A0,W
         000083d0 00000000! 
    1641 000083f0     cbfb          JRNE    CHOPFX                  ;ONLY ONE AT A TIME DUDELY
    1642 00008400                   CREATE  CHOPFPID,CHOPPERR
    1643 00008480     c0f2          JRUC    CHOPFX
    1644                    **************************************************************************
    1645                    *                                                                        *
    1646                    * CHOPPERF - THE FLYABLE CHOPPER PROCESS!!!                              *
    1647                    *                                                                        *
    1648                    **************************************************************************
    1649 00008490           CHOPPERR
    1650 00008490     09ee          MOVI    CHORINIT,A14
         000084a0 0000ddc0' 
    1651 000084c0     c003          JRUC    CHOPPERG
    1652 000084d0           CHOPPERF
    1653 000084d0     09ee          MOVI    CHOFINIT,A14
TMS340 COFF Macro Assembler Version 6.10     Sat Apr 10 02:20:27 2021
 Copyright (c) 1985-1991  Texas Instruments Incorporated 

 <<< N  A  R  C  -- THE CHOPPER >>>                                  PAGE   40

         000084e0 00002f40" 
    1654 00008500           CHOPPERG
    1655 00008500     09e6          MOVI    D3TAB,A6                                                 
         00008510 00008160' 
    1656 00008530     0d5f          CALLA   CARINIT                 ;INITIALIZE THE CAR
         00008540 00000000! 
    1657 00008560     ca80          JAZ     DUMDIE                  ;BR = INITIALIZATION FAILURE
         00008570 00000000! 
    1658                    
    1659 00008590     5663          CLR     A3
    1660 000085a0     b26a          MOVE    A3,*A10(OPLINK),L
         000085b0     01f0  
    1661 000085c0     b743          MOVE    *A10(OZVAL),A3,L
         000085d0     00c0  
    1662 000085e0     b7a6          MOVE    *A13(ETEMP1),A6,L
         000085f0     0180  
    1663 00008600     b34d          MOVE    A10,*A13(ETEMP1),L
         00008610     0180  
    1664 00008620     4cca          MOVE    A6,A10
    1665 00008630     b26a          MOVE    A3,*A10(OZVAL),L
         00008640     00c0  
    1666 00008650     b3aa          MOVE    A13,*A10(OPLINK),L      ;BODY
         00008660     01f0  
    1667                    
    1668 00008670     0d3f          CALLR   CHOPSETZ                ;RESET THE CHOPPER Z'S
         00008680     fc3b  
    1669 00008690     0d3f          CALLR   CHOPSHAD
         000086a0     fd6d  
    1670                    
    1671 000086b0     05a0          MOVE    @PCHOPCNT,A0,W
         000086c0 00000000! 
    1672 000086e0     1020          INC     A0
    1673 000086f0     0580          MOVE    A0,@PCHOPCNT,W
         00008700 00000000! 
    1674                    
    1675 00008720     0d3f          CALLR   CHOPFULL                ;CHOPPER AT FULL POWER
         00008730     fcc3  
    1676                    
    1677 00008740     09e6          MOVI    CHOPILXY,A6             ;STORE FIRING OFFSETS
         00008750 0013004f  
    1678 00008770     b2cd          MOVE    A6,*A13(EDRIVXY),L
         00008780     00a0  
    1679 00008790     09e6          MOVI    CHOPASXY,A6
         000087a0 0017004b  
    1680 000087c0     b2cd          MOVE    A6,*A13(EPASSXY),L
         000087d0     00c0  
    1681 000087e0     09e6          MOVI    CHOPILRB,A6
         000087f0 0013004f  
    1682 00008810     b2cd          MOVE    A6,*A13(EDRIVRB),L
         00008820     0140  
    1683 00008830     09e6          MOVI    CHOPASRB,A6
         00008840 0017004b  
    1684 00008860     b2cd          MOVE    A6,*A13(EPASSRB),L
         00008870     0160  
    1685 00008880     09c6          MOVI    CHOPTIME,A6
TMS340 COFF Macro Assembler Version 6.10     Sat Apr 10 02:20:27 2021
 Copyright (c) 1985-1991  Texas Instruments Incorporated 

 <<< N  A  R  C  -- THE CHOPPER >>>                                  PAGE   41

         00008890     0898  
    1686 000088a0     b2cd          MOVE    A6,*A13(ECHOPTIM),L
         000088b0     0100  
    1687                    
    1688 000088c0     56c6          CLR     A6
    1689 000088d0     0586          MOVE    A6,@PCBSNDF,W
         000088e0 00000000! 
    1690 00008900     0586          MOVE    A6,@PCRSNDF,W
         00008910 00000000! 
    1691 00008930     0586          MOVE    A6,@PCSPINH,W
         00008940 00000000! 
    1692 00008960     1846          MOVK    CHOZERO,A6
    1693 00008970     0586          MOVE    A6,@PCZEROCT,W
         00008980 00000000! 
    1694 000089a0     0586          MOVE    A6,@PCZEROY,W
         000089b0 00000000! 
    1695 000089d0           CHOPPERL
    1696 000089d0     4d08          MOVE    A8,A8
    1697 000089e0     ca56          JRZ     CHOPPERD                        ;BR = NO DRIVER, STOP US NOW!
    1698 000089f0     05a0          MOVE    @PCRSNDF,A0,W                   ;RUN SOUND ON?
         00008a00 00000000! 
    1699 00008a20     cb09          JRNZ    CHOPSDON                        ;YES
    1700 00008a30                   SOUND1  CHOPCRUZ                        ;FIRE OFF SOUND
    1701 00008a90     0580          MOVE    A0,@PCRSNDF,W                   ;AND FLAG IT ON
         00008aa0 00000000! 
    1702 00008ac0           CHOPSDON
    1703 00008ac0     b500          MOVE    *A8(OID),A0,W
         00008ad0     01a0  
    1704 00008ae0     0b40          CMPI    P1OID,A0
         00008af0     efff  
    1705 00008b00     cb04          JRNE    CHOPPN1
    1706 00008b10     07a2          MOVE    @P1DATA+PFLAGS,A2,L
         00008b20 00000080! 
    1707 00008b40     c006          JRUC    CHOPPCS
    1708 00008b50           CHOPPN1
    1709 00008b50     0b40          CMPI    P2OID,A0
         00008b60     dfff  
    1710 00008b70     cb3d          JRNE    CHOPPERD                        ;BR = WHO IS THIS GUY?
    1711 00008b80     07a2          MOVE    @P2DATA+PFLAGS,A2,L
         00008b90 00000080! 
    1712 00008bb0           CHOPPCS
    1713 00008bb0     1e42          BTST    BSITIN,A2
    1714 00008bc0     cb53          JRNE    CHOPSDOF                        ;BR = DRIVER NOT SEATED YET
    1715 00008bd0     1d22          BTST    BDHOLD,A2
    1716 00008be0     cb51          JRNE    CHOPSDOF                        ;BR = DRIVER IS HIT
    1717 00008bf0     1da2          BTST    BDEAD,A2
    1718 00008c00     cb4f          JRNE    CHOPSDOF                        ;BR = DRIVER IS DEAD
    1719                    
    1720 00008c10     b7a1          MOVE    *A13(ESWTCH),A1,L               ;GET THE SWITCH BITS
         00008c20     00e0  
    1721 00008c30     2781          SLL     28,A1
    1722 00008c40     2d21          SRL     23,A1
    1723 00008c50     0b21          ADDI    FLYTAB,A1
         00008c60 00009cd0' 
    1724 00008c80     8621          MOVE    *A1,A1,L
TMS340 COFF Macro Assembler Version 6.10     Sat Apr 10 02:20:27 2021
 Copyright (c) 1985-1991  Texas Instruments Incorporated 

 <<< N  A  R  C  -- THE CHOPPER >>>                                  PAGE   42

    1725 00008c90                   JSRPR   A1
    1726 00008ce0     0d5f          CALLA   CKCRESET                ;CHECK IF IT'S TIME TO DO A RESET
         00008cf0 00000000! 
    1727                    
    1728 00008d10     b7a3          MOVE    *A13(ECHOPTIM),A3,L
         00008d20     0100  
    1729 00008d30     0b43          CMPI    2*3CH,A3
         00008d40     ff87  
    1730 00008d50     c313          JRHI    CHOPMTIM                ;MORE TIME LEFT FOR CHOPPER
    1731                    
    1732 00008d60     b7a2          MOVE    *A13(ETEMP3),A2,L
         00008d70     01c0  
    1733 00008d80     ca10          JRZ     CHOPMTIM
    1734 00008d90     b640          MOVE    *A2(OPLINK),A0,L
         00008da0     01f0  
    1735 00008db0     cb0d          JRNZ    CHOPMTIM                ;THERE ALREADY EXISTS A FLASH PROC
    1736 00008dc0                   CREATE  INDPID,CHOPFLAS
    1737 00008e40     b202          MOVE    A0,*A2(OPLINK),L
         00008e50     01f0  
    1738 00008e60     ca02          JRZ     CHOPMTIM
    1739 00008e70     b3a0          MOVE    A13,*A0(PDATA),L
         00008e80     0060  
    1740 00008e90           CHOPMTIM
    1741 00008e90     0be3          SUBI    CHOPSLP,A3
         00008ea0     fffd  
    1742 00008eb0     ce67          JRN     CHOPDIVE                ;DIVE AND DIE
    1743 00008ec0     b26d          MOVE    A3,*A13(ECHOPTIM),L
         00008ed0     0100  
    1744 00008ee0                   SLOOP   CHOPSLP,CHOPPERL        ;HANG OUT DUDE
    1745 00008f50           CHOPPERD
    1746 00008f50     5600          CLR     A0
    1747 00008f60     b20d          MOVE    A0,*A13(ESWTCH),L
         00008f70     00e0  
    1748 00008f80     b7a3          MOVE    *A13(ECHOPTIM),A3,L
         00008f90     0100  
    1749 00008fa0     0b43          CMPI    2*3CH,A3
         00008fb0     ff87  
    1750 00008fc0     c305          JRHI    CHOPPDTIM               ;MORE TIME LEFT FOR CHOPPER
    1751 00008fd0     0be3          SUBI    CHOPSLP,A3
         00008fe0     fffd  
    1752 00008ff0     ce53          JRN     CHOPDIVE                ;DIVE AND DIE
    1753 00009000     b26d          MOVE    A3,*A13(ECHOPTIM),L
         00009010     0100  
    1754 00009020           CHOPPDTIM
    1755 00009020     05a0          MOVE    @PCRSNDF,A0,W           ;RUN SOUND ON?
         00009030 00000000! 
    1756 00009050     ca0a          JRZ     CHOPSDOF                ;BR = YES
    1757 00009060                   SOUND1  YAMOFF
    1758 000090c0     5600          CLR     A0
    1759 000090d0     0580          MOVE    A0,@PCRSNDF,W
         000090e0 00000000! 
    1760 00009100           CHOPSDOF
    1761                    **************************************************************************
    1762                    *                                                                        *
    1763                    *       MOVI    0,A11                                                    *
TMS340 COFF Macro Assembler Version 6.10     Sat Apr 10 02:20:27 2021
 Copyright (c) 1985-1991  Texas Instruments Incorporated 

 <<< N  A  R  C  -- THE CHOPPER >>>                                  PAGE   43

    1764                    *       MOVE    *A10(OXVEL),A0,L                                         *
    1765                    *       JREQ    CHOPPES                                                  *
    1766                    *       JRGT    CHOPPD1                                                  *
    1767                    *       MOVI    4300H,A9                                                 *
    1768                    *       JRUC    CHOPPD2                                                  *
    1769                    * CHOPPD1                                                                *
    1770                    *       MOVI    -4300H,A9                                                *
    1771                    * CHOPPD2                                                                *
    1772                    *       CALLA   CXACCELB                                                 *
    1773                    * CHOPPES                                                                *
    1774                    *       CALLR   KILLYZP                                                  *
    1775                    *       MOVE    *A10(OZVEL),A0,L                                         *
    1776                    *       JRZ     CHOPP0Z                                                  *
    1777                    *       CLR     A1                                                       *
    1778                    *       CALLA   CARZVEL                                                  *
    1779                    *                                                                        *
    1780                    **************************************************************************
    1781 00009100           CHOPP0Z
    1782 00009100     0d3f          CALLR   P_GROUND
         00009110     fec3  
    1783 00009120     c80a          JRC     CHOPSTOP
    1784 00009130     0d3f          CALLR   XVEL2ZERO
         00009140     017a  
    1785 00009150     09c1          MOVI    CHOYACC/2,A1
         00009160     1000  
    1786 00009170     09e3          MOVI    CHOYFULL/2,A3
         00009180 00018000  
    1787 000091a0     0d3f          CALLR   SETDVEL
         000091b0     01a4  
    1788 000091c0     c00c          JRUC    CHOPP0Y
    1789 000091d0           CHOPSTOP
    1790 000091d0     b740          MOVE    *A10(OYVEL),A0,L
         000091e0     0060  
    1791 000091f0     ca09          JREQ    CHOPP0Y
    1792 00009200     5621          CLR     A1
    1793 00009210     0d5f          CALLA   CARYZVEL                                                 
         00009220 00000000! 
    1794 00009240     0d5f          CALLA   CHOPSETZ
         00009250 00004a40' 
    1795 00009270     0d3f          CALLR   KILLYZP
         00009280     0493  
    1796 00009290           CHOPP0Y
    1797 00009290     b541          MOVE    *A10(OXPOS),A1,W
         000092a0     0090  
    1798 000092b0     05a2          MOVE    @WORLDTLX+16,A2,W
         000092c0 00000010! 
    1799 000092e0     4422          SUB     A1,A2
    1800 000092f0     ce03          JRN     CHOPPIF         ;BR = CHOPPER IS IN FRONT OF PLAYERS
    1801 00009300     0b42          CMPI    3*512,A2
         00009310     f9ff  
    1802 00009320     c90a          JRHS    CHOPPEX         ;BR = CHOPPER TOO FAR BACK, DELETE.
    1803 00009330           CHOPPIF
    1804 00009330     0d5f          CALLA   CKCRESET        ;CHECK IF IT'S TIME TO DO A RESET
         00009340 00000000! 
    1805 00009360                   SLOOP   5,CHOPPERL
TMS340 COFF Macro Assembler Version 6.10     Sat Apr 10 02:20:27 2021
 Copyright (c) 1985-1991  Texas Instruments Incorporated 

 <<< N  A  R  C  -- THE CHOPPER >>>                                  PAGE   44

    1806                    
    1807 000093d0           CHOPPEX
    1808 000093d0     0d5f          CALLA   KILLCARP
         000093e0 00000000! 
    1809 00009400     0d5f          CALLA   KILLYZP
         00009410 0000dbc0' 
    1810 00009430     0d5f          CALLA   DELCBODY
         00009440 00000000! 
    1811 00009460     0d5f          CALLA   CDELALL                 ;DELETE THE COMPANY
         00009470 00000000! 
    1812 00009490     05a6          MOVE    @PCHOPCNT,A6,W
         000094a0 00000000! 
    1813 000094c0     1426          DEC     A6
    1814 000094d0     0586          MOVE    A6,@PCHOPCNT,W
         000094e0 00000000! 
    1815 00009500                   DIE
    1816                    *
    1817                    *MAKE THE PLAYER CHOPPER TAKE A DIVE, WHEN IT HITS IT GOES BOOM
    1818 00009530           CHOPDIVE
    1819 00009530     5600          CLR     A0
    1820 00009540     b20d          MOVE    A0,*A13(ESWTCH),L
         00009550     00e0  
    1821 00009560     05a0          MOVE    @PCRSNDF,A0,W           ;RUN SOUND ON?
         00009570 00000000! 
    1822 00009590     ca0a          JRZ     CHOPDDOF                ;BR = YES
    1823 000095a0                   SOUND1  YAMOFF
    1824 00009600     5600          CLR     A0
    1825 00009610     0580          MOVE    A0,@PCRSNDF,W
         00009620 00000000! 
    1826 00009640           CHOPDDOF
    1827 00009640     0d3f          CALLR   P_GROUND
         00009650     fe6f  
    1828 00009660     c810          JRC     CHOPBOOM
    1829 00009670     0d3f          CALLR   XVEL2ZERO
         00009680     0126  
    1830 00009690     09c1          MOVI    CHOYACC/2,A1
         000096a0     1000  
    1831 000096b0     09e3          MOVI    CHOYFULL/2,A3
         000096c0 00018000  
    1832 000096e0     0d3f          CALLR   SETDVEL
         000096f0     0150  
    1833 00009700                   SLOOP   5,CHOPDDOF
    1834 00009770           CHOPBOOM
    1835 00009770     4d0e          MOVE    A8,A14
    1836 00009780     4d48          MOVE    A10,A8
    1837 00009790     b549          MOVE    *A10(OFLAGS),A9,W       
         000097a0     0100  
    1838 000097b0     2609          SLL     16,A9
    1839 000097c0     b540          MOVE    *A10(OZPOS),A0,W
         000097d0     00d0  
    1840 000097e0     ec09          MOVX    A0,A9
    1841 000097f0     b74b          MOVE    *A10(ODMAXY),A11,L
         00009800     0210  
    1842 00009810     09ca          MOVI    BEOID|ROCKETID,A10
         00009820     0be4  
TMS340 COFF Macro Assembler Version 6.10     Sat Apr 10 02:20:27 2021
 Copyright (c) 1985-1991  Texas Instruments Incorporated 

 <<< N  A  R  C  -- THE CHOPPER >>>                                  PAGE   45

    1843 00009830                   CREATE  CEXPID,CEXPLODE
    1844 000098b0     4d0a          MOVE    A8,A10
    1845 000098c0     4dc8          MOVE    A14,A8
    1846 000098d0     4d40          MOVE    A10,A0
    1847 000098e0     09c9          MOVI    BEOID|ROCKETID,A9
         000098f0     0be4  
    1848 00009900     0d3f          CALLR   PCBOOM
         00009910     033b  
    1849 00009920                   DIE
    1850                    
    1851                    **************************************************************************
    1852                    *                                                                        *
    1853                    * CHOPFLAS - PROCESS TO MAKE THE CHOPPER FLASH PALETTES                  *
    1854                    *          LINKED TO CHOPPER THROUGH IMAGE IN ETEMP3                     *
    1855                    * PDATA = PTR TO CHOPPER PROC.                                           *
    1856                    *                                                                        *
    1857                    **************************************************************************
    1858 00009950           CHOPFLAS
    1859 00009950     b7ab          MOVE    *A13(PDATA),A11,L
         00009960     0060  
    1860 00009970     4d60          MOVE    A11,A0
    1861 00009980     0d5f          CALLA   GETA10
         00009990 00000000! 
    1862 000099b0     09c9          MOVI    40,A9
         000099c0     0028  
    1863 000099d0           CHOPFLP
    1864 000099d0     4dae          MOVE    A13,A14
    1865 000099e0     4d6d          MOVE    A11,A13
    1866 000099f0     09e1          MOVI    HELWHT,A1
         00009a00 00000000! 
    1867 00009a20     0d5f          CALLA   CNEWPAL
         00009a30 00000000! 
    1868 00009a50     4dcd          MOVE    A14,A13
    1869 00009a60                   SLEEP   5
    1870 00009aa0     4dae          MOVE    A13,A14
    1871 00009ab0     4d6d          MOVE    A11,A13
    1872 00009ac0     09e1          MOVI    HELBLUE,A1
         00009ad0 00000000! 
    1873 00009af0     0d5f          CALLA   CNEWPAL
         00009b00 00000000! 
    1874 00009b20     4dcd          MOVE    A14,A13
    1875 00009b30                   SLEEP   5
    1876 00009b70     3f69          DSJ     A9,CHOPFLP
    1877 00009b80     b761          MOVE    *A11(ETEMP3),A1,L
         00009b90     01c0  
    1878 00009ba0     ca0f          JRZ     CHOPFLLP
    1879 00009bb0     b620          MOVE    *A1(OPLINK),A0,L
         00009bc0     01f0  
    1880 00009bd0     49a0          CMP     A13,A0
    1881 00009be0     ca08          JREQ    CHOPFLLK                ;IT'S COOL, HE'S MINE
    1882 00009bf0                   CALLERR 0
    1883 00009c70           CHOPFLLK
    1884 00009c70     5600          CLR     A0      
    1885 00009c80     b201          MOVE    A0,*A1(OPLINK),L
         00009c90     01f0  
TMS340 COFF Macro Assembler Version 6.10     Sat Apr 10 02:20:27 2021
 Copyright (c) 1985-1991  Texas Instruments Incorporated 

 <<< N  A  R  C  -- THE CHOPPER >>>                                  PAGE   46

    1886 00009ca0           CHOPFLLP
    1887 00009ca0                   DIE
    1888                    
    1889 00009cd0           FLYTAB
    1890 00009cd0 00009ed0'         .LONG   STRAIGHT,FLYUP,FLYDOWN,DUMRETP,REVERSE,REVFLYUP
    1891 00009d90 0000a500'         .LONG   REVFLYDN,DUMRETP,FORWARD,FORFLYUP,FORFLYDN,DUMRETP
    1892 00009e50 00000000!         .LONG   DUMRETP,DUMRETP,DUMRETP,DUMRETP
    1893                    
    1894                    *NOTE: ALL OF THESE DIRECTIONAL ROUTINES MUST BE CALLED WITH JSRP
    1895                    *MAKE THE CAR GO STRAIGHT AHEAD
    1896 00009ed0           STRAIGHT
    1897 00009ed0     0d3f          CALLR   YVEL2ZERO
         00009ee0     008c  
    1898 00009ef0     0d3f          CALLR   XVEL2ZERO
         00009f00     009e  
    1899 00009f10     1849          MOVK    CHOZERO,A9
    1900 00009f20     0589          MOVE    A9,@PCZEROCT,W          ;RE-INITIALIZE THE COUNT
         00009f30 00000000! 
    1901 00009f50     0589          MOVE    A9,@PCZEROY,W
         00009f60 00000000! 
    1902                    **************************************************************************
    1903                    *                                                                        *
    1904                    *       MOVI    FRICTION,A9                                              *
    1905                    *       CLR     A11                                                      *
    1906                    *       MOVE    *A10(OXVEL),A0,L                                         *
    1907                    *       JRN     STRAIG3                                                  *
    1908                    *       NEG     A9                                                       *
    1909                    * STRAIG3                                                                *
    1910                    *       CALLA   CXACCELB                ;DECELERATE DUE TO FRICTION      *
    1911                    * STRAYTEX                                                               *
    1912                    *                                                                        *
    1913                    **************************************************************************
    1914 00009f80                   RETP
    1915                    
    1916                    *REVERSE VELOCITY       
    1917 00009fb0           REVERSE
    1918 00009fb0     0d3f          CALLR   YVEL2ZERO
         00009fc0     007e  
    1919 00009fd0     09c1          MOVI    -CHOACCEL,A1
         00009fe0     c000  
    1920 00009ff0     09c2          MOVI    -CHOBRAKE,A2
         0000a000     9000  
    1921 0000a010     09e3          MOVI    -CHOFULL,A3
         0000a020 fff20000  
    1922 0000a040     0d3f          CALLR   SETRVEL
         0000a050     0157  
    1923 0000a060                   RETP
    1924                    *FORWARD VELOCITY       
    1925 0000a090           FORWARD
    1926 0000a090     0d3f          CALLR   YVEL2ZERO
         0000a0a0     0070  
    1927 0000a0b0     09c1          MOVI    CHOACCEL,A1
         0000a0c0     4000  
    1928 0000a0d0     09c2          MOVI    CHOBRAKE,A2
         0000a0e0     7000  
TMS340 COFF Macro Assembler Version 6.10     Sat Apr 10 02:20:27 2021
 Copyright (c) 1985-1991  Texas Instruments Incorporated 

 <<< N  A  R  C  -- THE CHOPPER >>>                                  PAGE   47

    1929 0000a0f0     09e3          MOVI    CHOFULL,A3
         0000a100 000e0000  
    1930 0000a120     0d3f          CALLR   SETFVEL
         0000a130     0112  
    1931 0000a140                   RETP
    1932                    *FORWARD VELOCITY,UP    
    1933 0000a170           FORFLYUP
    1934 0000a170     09c1          MOVI    -CHOYACC+(-CHOACCEL/3),A1
         0000a180     caab  
    1935 0000a190     09e3          MOVI    -CHOYFULL,A3
         0000a1a0 fffd0000  
    1936 0000a1c0     0d3f          CALLR   SETUVEL
         0000a1d0     00bf  
    1937 0000a1e0     09c1          MOVI    CHOACCEL/2,A1
         0000a1f0     2000  
    1938 0000a200     09c2          MOVI    CHOBRAKE,A2
         0000a210     7000  
    1939 0000a220     09e3          MOVI    CHOFULL,A3
         0000a230 000e0000  
    1940 0000a250     0d3f          CALLR   SETFVEL
         0000a260     00ff  
    1941 0000a270                   RETP
    1942                    *FORWARD VELOCITY,DOWN  
    1943 0000a2a0           FORFLYDN
    1944 0000a2a0     09c1          MOVI    CHOYACC+(CHOACCEL/3),A1
         0000a2b0     3555  
    1945 0000a2c0     09e3          MOVI    CHOYFULL,A3
         0000a2d0 00030000  
    1946 0000a2f0     0d3f          CALLR   SETDVEL
         0000a300     008f  
    1947 0000a310     09c1          MOVI    CHOACCEL/2,A1
         0000a320     2000  
    1948 0000a330     09c2          MOVI    CHOBRAKE,A2
         0000a340     7000  
    1949 0000a350     09e3          MOVI    CHOFULL,A3
         0000a360 000e0000  
    1950 0000a380     0d3f          CALLR   SETFVEL
         0000a390     00ec  
    1951 0000a3a0                   RETP
    1952                    *REVERSE VELOCITY,LEFT TURN     
    1953 0000a3d0           REVFLYUP
    1954 0000a3d0     09c1          MOVI    -CHOYACC+(-CHOACCEL/3),A1
         0000a3e0     caab  
    1955 0000a3f0     09e3          MOVI    -CHOYFULL,A3
         0000a400 fffd0000  
    1956 0000a420     0d3f          CALLR   SETUVEL
         0000a430     0099  
    1957 0000a440     09c1          MOVI    -(CHOACCEL/2),A1
         0000a450     e000  
    1958 0000a460     09c2          MOVI    -CHOBRAKE,A2
         0000a470     9000  
    1959 0000a480     09e3          MOVI    -CHOFULL,A3
         0000a490 fff20000  
    1960 0000a4b0     0d3f          CALLR   SETRVEL
         0000a4c0     0110  
TMS340 COFF Macro Assembler Version 6.10     Sat Apr 10 02:20:27 2021
 Copyright (c) 1985-1991  Texas Instruments Incorporated 

 <<< N  A  R  C  -- THE CHOPPER >>>                                  PAGE   48

    1961 0000a4d0                   RETP
    1962                    *REVERSE VELOCITY,RIGHT TURN    
    1963 0000a500           REVFLYDN
    1964 0000a500     09c1          MOVI    CHOYACC+(CHOACCEL/3),A1
         0000a510     3555  
    1965 0000a520     09e3          MOVI    CHOYFULL,A3
         0000a530 00030000  
    1966 0000a550     0d3f          CALLR   SETDVEL
         0000a560     0069  
    1967 0000a570     09c1          MOVI    -(CHOACCEL/2),A1
         0000a580     e000  
    1968 0000a590     09c2          MOVI    -CHOBRAKE,A2
         0000a5a0     9000  
    1969 0000a5b0     09e3          MOVI    -CHOFULL,A3
         0000a5c0 fff20000  
    1970 0000a5e0     0d3f          CALLR   SETRVEL
         0000a5f0     00fd  
    1971 0000a600                   RETP
    1972                    *FLY THE CHOPPER UP
    1973 0000a630           FLYUP
    1974 0000a630     0d3f          CALLR   XVEL2ZERO
         0000a640     002a  
    1975 0000a650     09c1          MOVI    -CHOYACC,A1
         0000a660     e000  
    1976 0000a670     09e3          MOVI    -CHOYFULL,A3
         0000a680 fffd0000  
    1977 0000a6a0     0d3f          CALLR   SETUVEL
         0000a6b0     0071  
    1978 0000a6c0                   RETP
    1979                    
    1980                    *FLY THE CHOPPER DOWN
    1981 0000a6f0           FLYDOWN
    1982 0000a6f0     0d3f          CALLR   XVEL2ZERO
         0000a700     001e  
    1983 0000a710     09c1          MOVI    CHOYACC,A1
         0000a720     2000  
    1984 0000a730     09e3          MOVI    CHOYFULL,A3
         0000a740 00030000  
    1985 0000a760     0d3f          CALLR   SETDVEL
         0000a770     0048  
    1986 0000a780                   RETP
    1987                    
    1988                    **************************************************************************
    1989                    *                                                                        *
    1990                    * YVEL2ZERO - DECELERATE THE CURRENT CHOPPER Y VELOCITY TO ZERO          *
    1991                    * A8 = PTR TO PILOT                                                      *
    1992                    * A10 = PTR TO CHOPPER                                                   *
    1993                    * A13 = PTR TO CHOPPER PROCESS                                           *
    1994                    *                                                                        *
    1995                    **************************************************************************
    1996 0000a7b0           YVEL2ZERO
    1997 0000a7b0     098f          MMTM    SP,A1,A3
         0000a7c0     5000  
    1998 0000a7d0     b741          MOVE    *A10(OYVEL),A1,L
         0000a7e0     0060  
TMS340 COFF Macro Assembler Version 6.10     Sat Apr 10 02:20:27 2021
 Copyright (c) 1985-1991  Texas Instruments Incorporated 

 <<< N  A  R  C  -- THE CHOPPER >>>                                  PAGE   49

    1999 0000a7f0     ca0c          JRZ     YVELISZ
    2000 0000a800     ce06          JRN     YVELD2S
    2001 0000a810     5663          CLR     A3
    2002 0000a820     09c1          MOVI    -CHOYACC,A1
         0000a830     e000  
    2003 0000a840     0d3f          CALLR   SETUVEL
         0000a850     0057  
    2004 0000a860     c005          JRUC    YVELISZ
    2005 0000a870           YVELD2S
    2006 0000a870     5663          CLR     A3      
    2007 0000a880     09c1          MOVI    CHOYACC,A1
         0000a890     2000  
    2008 0000a8a0     0d3f          CALLR   SETDVEL
         0000a8b0     0034  
    2009 0000a8c0           YVELISZ
    2010 0000a8c0     09af          MMFM    SP,A1,A3
         0000a8d0     000a  
    2011 0000a8e0     0960          RETS
    2012                    
    2013                    **************************************************************************
    2014                    *                                                                        *
    2015                    * XVEL2ZERO - DECELERATE THE CURRENT CHOPPER X VELOCITY TO ZERO          *
    2016                    * A8 = PTR TO PILOT                                                      *
    2017                    * A10 = PTR TO CHOPPER                                                   *
    2018                    * A13 = PTR TO CHOPPER PROCESS                                           *
    2019                    *                                                                        *
    2020                    **************************************************************************
    2021 0000a8f0           XVEL2ZERO
    2022 0000a8f0     098f          MMTM    SP,A1,A2,A3
         0000a900     7000  
    2023 0000a910     b741          MOVE    *A10(OXVEL),A1,L
         0000a920     0040  
    2024 0000a930     ca14          JRZ     XVELISZ
    2025 0000a940     ce0a          JRN     XVELF2S
    2026 0000a950     09c1          MOVI    -(CHOACCEL/2),A1
         0000a960     e000  
    2027 0000a970     09c2          MOVI    -FRICTION,A2
         0000a980     e000  
    2028 0000a990     09e3          MOVI    -CHOFULL,A3
         0000a9a0 fff20000  
    2029 0000a9c0     0d3f          CALLR   SETRVEL
         0000a9d0     00bf  
    2030 0000a9e0     c009          JRUC    XVELISZ
    2031 0000a9f0           XVELF2S
    2032 0000a9f0     09c1          MOVI    CHOACCEL/2,A1
         0000aa00     2000  
    2033 0000aa10     09c2          MOVI    FRICTION,A2
         0000aa20     2000  
    2034 0000aa30     09e3          MOVI    CHOFULL,A3
         0000aa40 000e0000  
    2035 0000aa60     0d3f          CALLR   SETFVEL
         0000aa70     007e  
    2036 0000aa80           XVELISZ
    2037 0000aa80     09af          MMFM    SP,A1,A2,A3
         0000aa90     000e  
TMS340 COFF Macro Assembler Version 6.10     Sat Apr 10 02:20:27 2021
 Copyright (c) 1985-1991  Texas Instruments Incorporated 

 <<< N  A  R  C  -- THE CHOPPER >>>                                  PAGE   50

    2038 0000aaa0     0960          RETS
    2039                    
    2040                    **************************************************************************
    2041                    *                                                                        *
    2042                    * XVEL2X - DECELERATE THE CURRENT CHOPPER X VELOCITY TO GIVEN            *
    2043                    * A8 = PTR TO PILOT                                                      *
    2044                    * A10 = PTR TO CHOPPER                                                   *
    2045                    * A11 = VELOCITY DESIRED                                                 *
    2046                    * A13 = PTR TO CHOPPER PROCESS                                           *
    2047                    *                                                                        *
    2048                    **************************************************************************
    2049 0000aab0           XVEL2X
    2050 0000aab0     098f          MMTM    SP,A1,A9
         0000aac0     4040  
    2051 0000aad0     b741          MOVE    *A10(OXVEL),A1,L
         0000aae0     0040  
    2052 0000aaf0     4961          CMP     A11,A1
    2053 0000ab00     ca0c          JRZ     XVELXISZ
    2054 0000ab10     ce06          JRN     XVELXF2S
    2055 0000ab20     09c9          MOVI    -FRICTION,A9
         0000ab30     e000  
    2056 0000ab40     0d5f          CALLA   CXACCELB
         0000ab50 00000000! 
    2057 0000ab70     c005          JRUC    XVELXISZ
    2058 0000ab80           XVELXF2S
    2059 0000ab80     09c9          MOVI    FRICTION,A9
         0000ab90     2000  
    2060 0000aba0     0d5f          CALLA   CXACCELB
         0000abb0 00000000! 
    2061 0000abd0           XVELXISZ
    2062 0000abd0     09af          MMFM    SP,A1,A9
         0000abe0     0202  
    2063 0000abf0     0960          RETS
    2064                    
    2065                    **************************************************************************
    2066                    *                                                                        *
    2067                    * SETDVEL - SET PLAYER CHOPPER UPWARD VELOCITY                           *
    2068                    * A1 = ACCELERATION FACTOR                                               *
    2069                    * A2 = BRAKING FACTOR                                                    *
    2070                    * A3 = TOP SPEED                                                         *
    2071                    * A8 = PTR TO DRIVER                                                     *
    2072                    * A10 = PTR TO CHOPPER                                                   *
    2073                    * A13 = PTR TO CHOPPER PROCESS                                           *
    2074                    *                                                                        *
    2075                    **************************************************************************
    2076 0000ac00           SETDVEL
    2077 0000ac00     098f          MMTM    SP,A0,A1,A9,A11
         0000ac10     c050  
    2078 0000ac20     0d3f          CALLR   P_GROUND
         0000ac30     fd11  
    2079 0000ac40     c90b          JRNC    SETDVELT
    2080 0000ac50     5621          CLR     A1
    2081 0000ac60     0d5f          CALLA   CARYZVEL
         0000ac70 00000000! 
    2082 0000ac90     0d5f          CALLA   KILLYZP
TMS340 COFF Macro Assembler Version 6.10     Sat Apr 10 02:20:27 2021
 Copyright (c) 1985-1991  Texas Instruments Incorporated 

 <<< N  A  R  C  -- THE CHOPPER >>>                                  PAGE   51

         0000aca0 0000dbc0' 
    2083 0000acc0     0d5f          CALLA   CHOPSETZ
         0000acd0 00004a40' 
    2084 0000acf0     c053          JRUC    SETDVELX
    2085 0000ad00           SETDVELT
    2086 0000ad00     0d3f          CALLR   P_TOP                   ;ADJUST YVEL IF AT THE TOP OF THE SCREEN
         0000ad10     fd12  
    2087 0000ad20     c924          JRNC    SETDVELK                ;HE'S NOT AT THE TOP
    2088 0000ad30     b74b          MOVE    *A10(OYVEL),A11,L
         0000ad40     0060  
    2089 0000ad50     cf21          JRNN    SETDVELK                ;HE'S NOT GOING UP
    2090 0000ad60     5621          CLR     A1
    2091 0000ad70     0d5f          CALLA   CARYZVEL
         0000ad80 00000000! 
    2092 0000ada0     0d3f          CALLR   KILLYZP
         0000adb0     02e0  
    2093 0000adc0     c01a          JRUC    SETDVELK
    2094                    *
    2095                    *SET UPWARD Y VELOCITY, SAME PARAMS AS SETDVEL
    2096 0000add0           SETUVEL
    2097 0000add0     098f          MMTM    SP,A0,A1,A9,A11
         0000ade0     c050  
    2098 0000adf0     0d3f          CALLR   P_TOP
         0000ae00     fd03  
    2099 0000ae10     c908          JRNC    SETUVELT
    2100 0000ae20     5621          CLR     A1
    2101 0000ae30     0d5f          CALLA   CARYZVEL
         0000ae40 00000000! 
    2102 0000ae60     0d5f          CALLA   KILLYZP
         0000ae70 0000dbc0' 
    2103 0000ae90     c039          JRUC    SETDVELX
    2104 0000aea0           SETUVELT
    2105 0000aea0     0d3f          CALLR   P_GROUND                ;ADJUST YVEL IF ON THE GROUND
         0000aeb0     fce9  
    2106 0000aec0     c90a          JRNC    SETDVELK                ;HE'S NOT AT THE TOP
    2107 0000aed0     b74b          MOVE    *A10(OYVEL),A11,L
         0000aee0     0060  
    2108 0000aef0     c607          JRLE    SETDVELK                ;HE'S NOT GOING DOWN
    2109 0000af00     5621          CLR     A1
    2110 0000af10     0d5f          CALLA   CARYZVEL
         0000af20 00000000! 
    2111 0000af40     0d3f          CALLR   KILLYZP
         0000af50     02c6  
    2112 0000af60     0300          JRUC    SETDVELK
    2113                    
    2114 0000af70           SETDVELK
    2115 0000af70     b74b          MOVE    *A10(OYVEL),A11,L
         0000af80     0060  
    2116 0000af90     cb0d          JRNZ    SETDVEL0
    2117 0000afa0     05a9          MOVE    @PCZEROY,A9,W
         0000afb0 00000000! 
    2118 0000afd0     0b49          CMPI    CHOZERO,A9
         0000afe0     fffd  
    2119 0000aff0     c507          JRGE    SETDVEL0
    2120 0000b000     1029          INC     A9
TMS340 COFF Macro Assembler Version 6.10     Sat Apr 10 02:20:27 2021
 Copyright (c) 1985-1991  Texas Instruments Incorporated 

 <<< N  A  R  C  -- THE CHOPPER >>>                                  PAGE   52

    2121 0000b010     0589          MOVE    A9,@PCZEROY,W
         0000b020 00000000! 
    2122 0000b040     0d3f          CALLR   KILLYZP
         0000b050     02b6  
    2123 0000b060     c01c          JRUC    SETDVELX        
    2124 0000b070           SETDVEL0
    2125 0000b070     4c6b          MOVE    A3,A11
    2126 0000b080     b5a9          MOVE    *A13(ESWTCH),A9,W
         0000b090     00e0  
    2127 0000b0a0     1f69          BTST    BPCROUCH,A9
    2128 0000b0b0     cb09          JRNE    SETDZTOO
    2129 0000b0c0     4c29          MOVE    A1,A9                   ;ACCELERATE
    2130 0000b0d0     0d5f          CALLA   CYACCEL
         0000b0e0 0000d5a0' 
    2131 0000b100     5621          CLR     A1
    2132 0000b110     0d5f          CALLA   CARZVEL
         0000b120 00000000! 
    2133 0000b140     c00a          JRUC    SETDVEL2
    2134 0000b150           SETDZTOO
    2135                    ***     SRA     1,A1
    2136 0000b150     4c29          MOVE    A1,A9                   ;SAME ACCELERATION AS IN Y
    2137 0000b160     2beb          SRA     1,A11                   ;BUT ONLY HALF THE TOP SPEED                    
    2138 0000b170     0d5f          CALLA   CYZACCEL
         0000b180 0000d460' 
    2139 0000b1a0     b741          MOVE    *A10(OYVEL),A1,L
         0000b1b0     0060  
    2140 0000b1c0     0d5f          CALLA   CARZVEL                 ;MAKE SURE Y & Z MATCH
         0000b1d0 00000000! 
    2141 0000b1f0           SETDVEL2
    2142 0000b1f0     5729          CLR     A9
    2143 0000b200     0589          MOVE    A9,@PCZEROY,W
         0000b210 00000000! 
    2144 0000b230           SETDVELX
    2145 0000b230     09af          MMFM    SP,A0,A1,A9,A11
         0000b240     0a03  
    2146 0000b250     0960          RETS
    2147                    
    2148                    **************************************************************************
    2149                    *                                                                        *
    2150                    * SETFVEL - SET PLAYER CHOPPER FORWARD VELOCITY                          *
    2151                    * A1 = ACCELERATION FACTOR                                               *
    2152                    * A2 = BRAKING FACTOR                                                    *
    2153                    * A3 = TOP SPEED                                                         *
    2154                    * A8 = PTR TO DRIVER                                                     *
    2155                    * A10 = PTR TO CHOPPER                                                   *
    2156                    * A13 = PTR TO CHOPPER PROCESS                                           *
    2157                    * RETURNS:                                                               *
    2158                    * Z BIT SET = STOPPED                                                    *
    2159                    * Z BIT CLR = IGNORE                                                     *
    2160                    * C BIT SET = BRAKING                                                    *
    2161                    * C BIT CLR = ACCELERATING                                               *
    2162                    *                                                                        *
    2163                    **************************************************************************
    2164 0000b260           SETFVEL
    2165 0000b260     098f          MMTM    SP,A0,A9,A11
TMS340 COFF Macro Assembler Version 6.10     Sat Apr 10 02:20:27 2021
 Copyright (c) 1985-1991  Texas Instruments Incorporated 

 <<< N  A  R  C  -- THE CHOPPER >>>                                  PAGE   53

         0000b270     8050  
    2166 0000b280     b74b          MOVE    *A10(OXVEL),A11,L
         0000b290     0040  
    2167 0000b2a0     c713          JRGT    SETFVEL1
    2168 0000b2b0     cb0b          JRNZ    SETFVEL0
    2169 0000b2c0     05a9          MOVE    @PCZEROCT,A9,W
         0000b2d0 00000000! 
    2170 0000b2f0     0b49          CMPI    CHOZERO,A9
         0000b300     fffd  
    2171 0000b310     c50c          JRGE    SETFVEL1
    2172 0000b320     1029          INC     A9
    2173 0000b330     0589          MOVE    A9,@PCZEROCT,W
         0000b340 00000000! 
    2174 0000b360     c023          JRUC    SETFVELX        
    2175 0000b370           SETFVEL0
    2176 0000b370     576b          CLR     A11
    2177 0000b380     4c49          MOVE    A2,A9                   ;SKID BRAKE
    2178 0000b390     0d5f          CALLA   CXACCELB
         0000b3a0 00000000! 
    2179 0000b3c0     0de0          SETC                            ;FLAG BRAKE
    2180 0000b3d0     c016          JRUC    SETFVEL2
    2181 0000b3e0           SETFVEL1
    2182 0000b3e0     05ab          MOVE    @UNIVENDX,A11,W
         0000b3f0 00000000! 
    2183 0000b410     0beb          SUBI    512,A11
         0000b420     fdff  
    2184 0000b430     b549          MOVE    *A10(OXPOS),A9,W
         0000b440     0090  
    2185 0000b450     4969          CMP     A11,A9
    2186 0000b460     c407          JRLT    SETFVELOK
    2187 0000b470     09eb          MOVI    [5,0],A11
         0000b480 00050000  
    2188 0000b4a0     0d3f          CALLR   XVEL2X
         0000b4b0     ff5f  
    2189 0000b4c0     0320          CLRC
    2190 0000b4d0     c006          JRUC    SETFVEL2
    2191 0000b4e0           SETFVELOK
    2192 0000b4e0     4c6b          MOVE    A3,A11
    2193 0000b4f0     4c29          MOVE    A1,A9                   ;ACCELERATE
    2194 0000b500     0d5f          CALLA   CXACCELB
         0000b510 00000000! 
    2195 0000b530     0320          CLRC                            ;FLAG ACCELERATE
    2196 0000b540           SETFVEL2
    2197 0000b540     5729          CLR     A9
    2198 0000b550     0589          MOVE    A9,@PCZEROCT,W
         0000b560 00000000! 
    2199 0000b580     1829          MOVK    1,A9
    2200 0000b590     4d29          MOVE    A9,A9                   ;CLR Z BIT WITHOUT CLRING C
    2201 0000b5a0           SETFVELX
    2202 0000b5a0     09af          MMFM    SP,A0,A9,A11
         0000b5b0     0a01  
    2203 0000b5c0     0960          RETS
    2204                            
    2205                    **************************************************************************
    2206                    *                                                                        *
TMS340 COFF Macro Assembler Version 6.10     Sat Apr 10 02:20:27 2021
 Copyright (c) 1985-1991  Texas Instruments Incorporated 

 <<< N  A  R  C  -- THE CHOPPER >>>                                  PAGE   54

    2207                    * SETRVEL - SET PLAYER CHOPPER REVERSE VELOCITY                          *
    2208                    * A1 = ACCELERATION FACTOR                                               *
    2209                    * A2 = BRAKING FACTOR                                                    *
    2210                    * A3 = TOP SPEED                                                         *
    2211                    * A8 = PTR TO DRIVER                                                     *
    2212                    * A10 = PTR TO CHOPPER                                                   *
    2213                    * A13 = PTR TO CHOPPER PROCESS                                           *
    2214                    * RETURNS:                                                               *
    2215                    * Z BIT SET = STOPPED                                                    *
    2216                    * Z BIT CLR = IGNORE                                                     *
    2217                    * C BIT SET = BRAKING                                                    *
    2218                    * C BIT CLR = ACCELERATING                                               *
    2219                    *                                                                        *
    2220                    **************************************************************************
    2221 0000b5d0           SETRVEL
    2222 0000b5d0     098f          MMTM    SP,A0,A9,A11
         0000b5e0     8050  
    2223 0000b5f0     b74b          MOVE    *A10(OXVEL),A11,L
         0000b600     0040  
    2224 0000b610     c723          JRGT    SETRVEL1
    2225 0000b620     cb0b          JRNZ    SETRVEL0
    2226 0000b630     05a9          MOVE    @PCZEROCT,A9,W
         0000b640 00000000! 
    2227 0000b660     0b49          CMPI    CHOZERO,A9
         0000b670     fffd  
    2228 0000b680     c505          JRGE    SETRVEL0
    2229 0000b690     1029          INC     A9
    2230 0000b6a0     0589          MOVE    A9,@PCZEROCT,W
         0000b6b0 00000000! 
    2231 0000b6d0     c023          JRUC    SETRVELX        
    2232 0000b6e0           SETRVEL0
    2233                    ****    CALLR   P_GROUND
    2234                    ****    JRNC    SETRVELA                ;O.K. TO ACCELERATE
    2235                    ****    NEG     A2
    2236                    ****    JRUC    SETRVEL1
    2237                    ***SETRVELA
    2238 0000b6e0     05ab          MOVE    @UNIVSTX,A11,W
         0000b6f0 00000000! 
    2239 0000b710     0b0b          ADDI    512,A11
         0000b720     0200  
    2240 0000b730     b549          MOVE    *A10(OXPOS),A9,W
         0000b740     0090  
    2241 0000b750     4969          CMP     A11,A9
    2242 0000b760     c707          JRGT    SETRVELOK
    2243 0000b770     09eb          MOVI    [-5,0],A11
         0000b780 fffb0000  
    2244 0000b7a0     0d3f          CALLR   XVEL2X
         0000b7b0     ff2f  
    2245 0000b7c0     0320          CLRC
    2246 0000b7d0     c00d          JRUC    SETRVEL2
    2247 0000b7e0           SETRVELOK
    2248 0000b7e0     4c6b          MOVE    A3,A11
    2249 0000b7f0     4c29          MOVE    A1,A9                   ;ACCELERATE
    2250 0000b800     0d5f          CALLA   CXACCELB
         0000b810 00000000! 
TMS340 COFF Macro Assembler Version 6.10     Sat Apr 10 02:20:27 2021
 Copyright (c) 1985-1991  Texas Instruments Incorporated 

 <<< N  A  R  C  -- THE CHOPPER >>>                                  PAGE   55

    2251 0000b830     0320          CLRC                            ;FLAG ACCELERATE
    2252 0000b840     c006          JRUC    SETRVEL2
    2253 0000b850           SETRVEL1
    2254 0000b850     576b          CLR     A11
    2255 0000b860     4c49          MOVE    A2,A9                   ;BRAKE
    2256 0000b870     0d5f          CALLA   CXACCELB
         0000b880 00000000! 
    2257 0000b8a0     0de0          SETC                            ;FLAG BRAKE
    2258 0000b8b0           SETRVEL2
    2259 0000b8b0     5729          CLR     A9
    2260 0000b8c0     0589          MOVE    A9,@PCZEROCT,W
         0000b8d0 00000000! 
    2261 0000b8f0     1829          MOVK    1,A9
    2262 0000b900     4d29          MOVE    A9,A9                   ;CLR Z BIT WITHOUT CLRING C
    2263 0000b910           SETRVELX
    2264 0000b910     09af          MMFM    SP,A0,A9,A11
         0000b920     0a01  
    2265 0000b930     0960          RETS
    2266                    
    2267                    **************************************************************************
    2268                    *                                                                        *
    2269                    * CHOPINTR - THE CHOPPER INTRO PROCESS, FOR WAVE START                   *
    2270                    *                                                                        *
    2271                    **************************************************************************
    2272 0000b940           CHOPINTR
    2273 0000b940     09ee          MOVI    CHOPINTI,A14
         0000b950 000022c0" 
    2274 0000b970     09e6          MOVI    D3TAB,A6                                                 
         0000b980 00008160' 
    2275 0000b9a0     0d5f          CALLA   CARINIT                 ;INITIALIZE THE CAR
         0000b9b0 00000000! 
    2276 0000b9d0     ca80          JAZ     DUMDIE                  ;BR = INITIALIZATION FAILURE
         0000b9e0 00000000! 
    2277                    
    2278 0000ba00     5663          CLR     A3
    2279 0000ba10     b26a          MOVE    A3,*A10(OPLINK),L
         0000ba20     01f0  
    2280 0000ba30     b743          MOVE    *A10(OZVAL),A3,L
         0000ba40     00c0  
    2281 0000ba50     b7a6          MOVE    *A13(ETEMP1),A6,L
         0000ba60     0180  
    2282 0000ba70     b34d          MOVE    A10,*A13(ETEMP1),L
         0000ba80     0180  
    2283 0000ba90     4cca          MOVE    A6,A10
    2284 0000baa0     b26a          MOVE    A3,*A10(OZVAL),L
         0000bab0     00c0  
    2285 0000bac0     b3aa          MOVE    A13,*A10(OPLINK),L      ;BODY
         0000bad0     01f0  
    2286 0000bae0     b3a8          MOVE    A13,*A8(OPLINK),L       ;PILOT
         0000baf0     01f0  
    2287                    
    2288 0000bb00     0d3f          CALLR   CHOPZRST                ;RESET THE CHOPPER Z'S
         0000bb10     f874  
    2289 0000bb20     0d3f          CALLR   CHOPSHAD
         0000bb30     fa24  
TMS340 COFF Macro Assembler Version 6.10     Sat Apr 10 02:20:27 2021
 Copyright (c) 1985-1991  Texas Instruments Incorporated 

 <<< N  A  R  C  -- THE CHOPPER >>>                                  PAGE   56

    2290                    
    2291 0000bb40     05a0          MOVE    @CHOPCNT,A0,W
         0000bb50 00000000! 
    2292 0000bb70     1020          INC     A0
    2293 0000bb80     0580          MOVE    A0,@CHOPCNT,W
         0000bb90 00000000! 
    2294                    
    2295 0000bbb0     0d3f          CALLR   CHOPFULL                ;CHOPPER AT FULL POWER
         0000bbc0     f97a  
    2296 0000bbd0           CHOISTLP
    2297 0000bbd0     07a1          MOVE    @SCROLLX,A1,L
         0000bbe0 00000000! 
    2298 0000bc00     cb07          JRNZ    CHODO   
    2299 0000bc10                   SLOOP   1,CHOISTLP
    2300 0000bc80           CHODO
    2301 0000bc80                   SOUND1  CHOPCRUZ
    2302 0000bce0           CHOLOOP
    2303 0000bce0     07a1          MOVE    @SCROLLX,A1,L           ;GET THE CURRENT SCROLL VALUE
         0000bcf0 00000000! 
    2304 0000bd10     0d5f          CALLA   CARXVEL                 ;STUFF MY OWN FOR THE INTRO
         0000bd20 00000000! 
    2305 0000bd40     05a0          MOVE    @WORLDTLX+16,A0,W       ;GET THE CURRENT WORLD COORD.
         0000bd50 00000010! 
    2306 0000bd70     0b40          CMPI    -1130,A0
         0000bd80     0469  
    2307 0000bd90     c70a          JRGT    CHOIEND
    2308 0000bda0     0d5f          CALLA   CKCRESET                ;CHECK RESET TIME
         0000bdb0 00000000! 
    2309 0000bdd0                   SLOOP   1,CHOLOOP
    2310                    
    2311 0000be40           CHOIEND
    2312                    *
    2313                    *MAKE THE DUDES FLY FROM THE CHOPPER
    2314 0000be40     09c0          MOVI    INPLAY,A0
         0000be50     0020  
    2315 0000be60     0580          MOVE    A0,@GAMSTATE,W          ;MARK INTRO AS FINISHED
         0000be70 00000000! 
    2316                    
    2317 0000be90                   SWAP    A10,A8
    2318 0000bec0     0d5f          CALLA   GETANIXY
         0000bed0 00000000! 
    2319 0000bef0                   SWAP    A10,A8
    2320 0000bf20     0b23          ADDI    [240,0],A3              ;OFFSET TO COCKPIT
         0000bf30 00f00000  
    2321 0000bf50     0b22          ADDI    [20,0],A2
         0000bf60 00140000  
    2322 0000bf80     4c49          MOVE    A2,A9
    2323 0000bf90     4c6b          MOVE    A3,A11
    2324                    
    2325 0000bfa0     09c7          MOVI    PJUMP|PRYTE,A7          ;START TO BAIL
         0000bfb0     0048  
    2326 0000bfc0     0587          MOVE    A7,@P1CTRL,W
         0000bfd0 00000000! 
    2327 0000bff0     0587          MOVE    A7,@P2CTRL,W
         0000c000 00000000! 
TMS340 COFF Macro Assembler Version 6.10     Sat Apr 10 02:20:27 2021
 Copyright (c) 1985-1991  Texas Instruments Incorporated 

 <<< N  A  R  C  -- THE CHOPPER >>>                                  PAGE   57

    2328 0000c020                   SLEEP   10
    2329 0000c060     09c7          MOVI    PRYTE,A7
         0000c070     0008  
    2330 0000c080     0587          MOVE    A7,@P1CTRL,W
         0000c090 00000000! 
    2331 0000c0b0     09e5          MOVI    P1DATA,A5
         0000c0c0 00000000! 
    2332 0000c0e0     b6a0          MOVE    *A5(POBJ),A0,L
         0000c0f0     00a0  
    2333 0000c100     ca2d          JRZ     CHOIP2
    2334 0000c110     4c06          MOVE    A0,A6
    2335 0000c120     4d22          MOVE    A9,A2
    2336 0000c130     4d63          MOVE    A11,A3
    2337 0000c140     09e4          MOVI    DMAWNZ,A4
         0000c150 00008002  
    2338 0000c170     0d5f          CALLA   GANISAG                 ;ADJUST THE TORSO PORTION OF THE BOD
         0000c180 00000000! 
    2339 0000c1a0     4d22          MOVE    A9,A2
    2340 0000c1b0     4d63          MOVE    A11,A3
    2341 0000c1c0     b6a0          MOVE    *A5(PLOBJ),A0,L
         0000c1d0     0120  
    2342 0000c1e0     0d5f          CALLA   GANISAG                 ;NOW THE LEGS
         0000c1f0 00000000! 
    2343 0000c210     bb46          MOVE    *A10(OXVEL),*A6(OXVEL),L
         0000c220     0040  
         0000c230     0040  
    2344 0000c240     bb40          MOVE    *A10(OXVEL),*A0(OXVEL),L
         0000c250     0040  
         0000c260     0040  
    2345 0000c270                   CREATE  INDPID,P1IJDECL
    2346                    
    2347 0000c2f0     09e1          MOVI    CARLIST,A1
         0000c300 00000000! 
    2348 0000c320     b7a0          MOVE    *A13(PASSPTR),A0,L
         0000c330     0260  
    2349 0000c340     ca09          JRZ     CHOIP2
    2350 0000c350     0d5f          CALLA   DELSUPP
         0000c360 00000000! 
    2351 0000c380     0d5f          CALLA   DELSOBJ
         0000c390 00000000! 
    2352 0000c3b0     5600          CLR     A0
    2353 0000c3c0     b20d          MOVE    A0,*A13(PASSPTR),L
         0000c3d0     0260  
    2354 0000c3e0           CHOIP2
    2355 0000c3e0     09c7          MOVI    PRYTE,A7
         0000c3f0     0008  
    2356 0000c400     0587          MOVE    A7,@P2CTRL,W
         0000c410 00000000! 
    2357 0000c430     09e5          MOVI    P2DATA,A5
         0000c440 00000000! 
    2358 0000c460     b6a0          MOVE    *A5(POBJ),A0,L
         0000c470     00a0  
    2359 0000c480     ca2a          JRZ     CHOGHOST
    2360 0000c490     4c06          MOVE    A0,A6
    2361 0000c4a0     4d22          MOVE    A9,A2
TMS340 COFF Macro Assembler Version 6.10     Sat Apr 10 02:20:27 2021
 Copyright (c) 1985-1991  Texas Instruments Incorporated 

 <<< N  A  R  C  -- THE CHOPPER >>>                                  PAGE   58

    2362 0000c4b0     4d63          MOVE    A11,A3
    2363 0000c4c0     09e4          MOVI    DMAWNZ,A4
         0000c4d0 00008002  
    2364 0000c4f0     0d5f          CALLA   GANISAG                 ;ADJUST THE TORSO PORTION OF THE BOD
         0000c500 00000000! 
    2365 0000c520     4d22          MOVE    A9,A2
    2366 0000c530     4d63          MOVE    A11,A3
    2367 0000c540     b6a0          MOVE    *A5(PLOBJ),A0,L
         0000c550     0120  
    2368 0000c560     0d5f          CALLA   GANISAG                 ;NOW THE LEGS
         0000c570 00000000! 
    2369 0000c590     bb46          MOVE    *A10(OXVEL),*A6(OXVEL),L
         0000c5a0     0040  
         0000c5b0     0040  
    2370 0000c5c0     bb40          MOVE    *A10(OXVEL),*A0(OXVEL),L
         0000c5d0     0040  
         0000c5e0     0040  
    2371 0000c5f0                   CREATE  INDPID,P2IJDECL
    2372                    
    2373 0000c670     09e1          MOVI    ENEMIES,A1
         0000c680 00000000! 
    2374 0000c6a0     4d00          MOVE    A8,A0
    2375 0000c6b0     ca07          JRZ     CHOGHOST
    2376 0000c6c0     0d5f          CALLA   DELSUPP
         0000c6d0 00000000! 
    2377 0000c6f0     0d5f          CALLA   DELSOBJ
         0000c700 00000000! 
    2378 0000c720     5708          CLR     A8
    2379 0000c730           CHOGHOST
    2380 0000c730           CHOIENDX
    2381 0000c730                   SLEEP   6
    2382 0000c770     b741          MOVE    *A10(OYVEL),A1,L
         0000c780     0060  
    2383 0000c790     0b61          CMPI    [-10,0],A1
         0000c7a0 0009ffff  
    2384 0000c7c0     c405          JRLT    CHONNDXCL
    2385 0000c7d0     0b01          ADDI    [0FFFFH,0B000H],A1
         0000c7e0     b000  
    2386 0000c7f0     0d5f          CALLA   CARYVEL                 ;LET'S ACCELERATE, SHALL WE
         0000c800 00000000! 
    2387 0000c820           CHONNDXCL
    2388 0000c820     0d5f          CALLA   CARSCRTST
         0000c830 00000000! 
    2389 0000c850     caed          JREQ    CHOIENDX                ;BR = STILL ON SCREEN    
    2390 0000c860                   SOUND1  YAMOFF
    2391 0000c8c0     0d5f          CALLA   KILLCARP
         0000c8d0 00000000! 
    2392 0000c8f0           CHOINTX
    2393 0000c8f0     0d5f          CALLA   DELCBODY
         0000c900 00000000! 
    2394 0000c920     0d5f          CALLA   CDELALL                 ;DELETE THE COMPANY
         0000c930 00000000! 
    2395 0000c950     05a0          MOVE    @CHOPCNT,A0,W
         0000c960 00000000! 
    2396 0000c980     1420          DEC     A0
TMS340 COFF Macro Assembler Version 6.10     Sat Apr 10 02:20:27 2021
 Copyright (c) 1985-1991  Texas Instruments Incorporated 

 <<< N  A  R  C  -- THE CHOPPER >>>                                  PAGE   59

    2397 0000c990     0580          MOVE    A0,@CHOPCNT,W
         0000c9a0 00000000! 
    2398 0000c9c0                   DIE
    2399                    
    2400                    **************************************************************************
    2401                    *                                                                        *
    2402                    * PLAYER CHOPPER HIT BY BULLET                                           *
    2403                    * A0 = PTR TO CHOPPER MAIN                                               *
    2404                    * A8 = PTR TO OBJECT THAT HIT IT                                         *
    2405                    *                                                                        *
    2406                    **************************************************************************
    2407 0000c9f0           PCHOPBUL:
    2408 0000c9f0     b601          MOVE    *A0(OPLINK),A1,L        ;GET THE PROCESS
         0000ca00     01f0  
    2409 0000ca10     ca05          JRZ     PCHOPBXX
    2410 0000ca20     b622          MOVE    *A1(ECHOPTIM),A2,L
         0000ca30     0100  
    2411 0000ca40     14a2          SUBK    5,A2
    2412 0000ca50     b241          MOVE    A2,*A1(ECHOPTIM),L
         0000ca60     0100  
    2413 0000ca70           PCHOPBXX
    2414 0000ca70     0320          CLRC
    2415 0000ca80     0960          RETS
    2416                    
    2417                    *
    2418                    *FLYABLE CHOPPER COLLISION LIST
    2419 0000ca90           CHOFCOLL
    2420 0000ca90     0be0          .WORD   BEOID|BULLETID
    2421 0000caa0 0000c9f0'         .LONG   PCHOPBUL
    2422                    
    2423 0000cac0     0b14          .WORD   B1OID|ROCKETID
    2424 0000cad0 0000cbb0'         .LONG   PCFLYCOL1
    2425 0000caf0     0b24          .WORD   B2OID|ROCKETID
    2426 0000cb00 0000cc40'         .LONG   PCFLYCOL2
    2427                    
    2428 0000cb20     0be4          .WORD   BEOID|ROCKETID
    2429 0000cb30 0000ccb0'         .LONG   PCFLYCOLR
    2430                    
    2431 0000cb50     0be6          .WORD   BEOID|BOMBID
    2432 0000cb60 0000ccb0'         .LONG   PCFLYCOLR
    2433                    
    2434 0000cb80     0000          .WORD   0
    2435 0000cb90 00000000!         .LONG   DUMRTSG
    2436                    
    2437                    **************************************************************************
    2438                    *                                                                        *
    2439                    * PCFLYCOLR - FLYABLE CHOPPER COLLISION WITH A ROCKET                    *
    2440                    * A0 = PTR TO CHOPPER MAIN                                               *
    2441                    * A8 = PTR TO OBJECT THAT HIT IT                                         *
    2442                    *                                                                        *
    2443                    **************************************************************************
    2444                    *
    2445                    *INTERSECTION WITH A PLAYER ONE ROCKET
    2446 0000cbb0           PCFLYCOL1
    2447 0000cbb0     05ae          MOVE    @P1DATA+PIRQFLAG,A14,W
TMS340 COFF Macro Assembler Version 6.10     Sat Apr 10 02:20:27 2021
 Copyright (c) 1985-1991  Texas Instruments Incorporated 

 <<< N  A  R  C  -- THE CHOPPER >>>                                  PAGE   60

         0000cbc0 00000080! 
    2448 0000cbe0     0b8e          ANDI    MDRIVER|MPASSEN,A14
         0000cbf0 ffffe7ff  
    2449 0000cc10     cb00          JRNZ    PCFLYRX         ;DON'T BLOW UP THIS CAR, I'M IN IT
         0000cc20     0080  
    2450 0000cc30     c007          JRUC    PCFLYCOLR
    2451                    *
    2452                    *INTERSECTION WITH A PLAYER ONE ROCKET
    2453 0000cc40           PCFLYCOL2
    2454 0000cc40     05ae          MOVE    @P2DATA+PIRQFLAG,A14,W
         0000cc50 00000080! 
    2455 0000cc70     0b8e          ANDI    MDRIVER|MPASSEN,A14
         0000cc80 ffffe7ff  
    2456 0000cca0     cb78          JRNZ    PCFLYRX         ;DON'T BLOW UP THIS CAR, I'M IN IT
    2457 0000ccb0           PCFLYCOLR
    2458 0000ccb0     b509          MOVE    *A8(OID),A9,W           ;AND ZE I.D. PLEASE
         0000ccc0     01a0  
    2459                    *MAKE IT BLOW UP, PASS THE I.D. OF THE EXPLOSION IN A9
    2460 0000ccd0           PCBOOM
    2461 0000ccd0     09ee          MOVI    DUMCOLL,A14
         0000cce0 00000000! 
    2462 0000cd00     b3c0          MOVE    A14,*A0(OCVECT),L       ;COLLISION POINTER NULL FOR NOW
         0000cd10     01d0  
    2463 0000cd20     b600          MOVE    *A0(OPLINK),A0,L        ;GET THE PROCESS
         0000cd30     01f0  
    2464 0000cd40                   PUSH    A0
    2465 0000cd50     0d5f          CALLA   GETA10                  ;PRESERVE CORRECT STATE FOR CDELALL
         0000cd60 00000000! 
    2466 0000cd80     57ce          CLR     A14
    2467 0000cd90     b3ca          MOVE    A14,*A10(OPLINK),L      ;SHOW NO CONTACT
         0000cda0     01f0  
    2468 0000cdb0     0d5f          CALLA   GETA8                   ;GET THE PILOT PTR
         0000cdc0 00000000! 
    2469 0000cde0     ca14          JRZ     PCFLYR1                 ;NO PILOT TO LAUNCH
    2470 0000cdf0     b50b          MOVE    *A8(OID),A11,W
         0000ce00     01a0  
    2471 0000ce10     4e00          MOVE    A0,B0
    2472 0000ce20     4d00          MOVE    A8,A0
    2473 0000ce30     0d5f          CALLA   OBJON                   ;TURN THIS GUY ON FOR SURE
         0000ce40 00000000! 
    2474 0000ce60                   CREATE  INDPID,PDRIVXWW
    2475 0000cee0     4e10          MOVE    B0,A0
    2476 0000cef0     5708          CLR     A8
    2477 0000cf00     0788          MOVE    A8,@PLAYCAR,L
         0000cf10 00000000! 
    2478 0000cf30           PCFLYR1
    2479 0000cf30     b603          MOVE    *A0(PASSPTR),A3,L
         0000cf40     0260  
    2480 0000cf50     ca16          JRZ     PCFLYR2
    2481 0000cf60     b46b          MOVE    *A3(OID),A11,W
         0000cf70     01a0  
    2482 0000cf80     4e00          MOVE    A0,B0
    2483 0000cf90     4c60          MOVE    A3,A0
    2484 0000cfa0     0d5f          CALLA   OBJON                   ;OH PLEASE, TURN ME ON TOO.
         0000cfb0 00000000! 
TMS340 COFF Macro Assembler Version 6.10     Sat Apr 10 02:20:27 2021
 Copyright (c) 1985-1991  Texas Instruments Incorporated 

 <<< N  A  R  C  -- THE CHOPPER >>>                                  PAGE   61

    2485 0000cfd0                   CREATE  INDPID,PDRIVXWW
    2486 0000d050     4e10          MOVE    B0,A0
    2487 0000d060     5663          CLR     A3
    2488 0000d070     b260          MOVE    A3,*A0(PASSPTR),L
         0000d080     0260  
    2489 0000d090     0783          MOVE    A3,@PLAYCAR,L
         0000d0a0 00000000! 
    2490 0000d0c0           PCFLYR2
    2491 0000d0c0                   PULL    A0
    2492 0000d0e0                   PUSH    A13
    2493 0000d0f0     4c0d          MOVE    A0,A13
    2494                    
    2495 0000d100     09e1          MOVI    HELBLUE,A1
         0000d110 00000000! 
    2496 0000d130     0d5f          CALLA   CNEWPAL                 ;MAKE SURE ALL IS BLUE
         0000d140 00000000! 
    2497                    
    2498 0000d160     b7ab          MOVE    *A13(ETEMP2),A11,L      ;SAVE THE TAIL PART     IN A11
         0000d170     01a0  
    2499 0000d180     57ce          CLR     A14
    2500 0000d190     b3cd          MOVE    A14,*A13(ETEMP2),L      ;DONT DELETE IT
         0000d1a0     01a0  
    2501 0000d1b0     09ee          MOVI    DUMCOLL,A14
         0000d1c0 00000000! 
    2502 0000d1e0     b3ca          MOVE    A14,*A10(OCVECT),L      ;COLLISION POINTER NULL FOR NOW
         0000d1f0     01d0  
    2503 0000d200     b3cb          MOVE    A14,*A11(OCVECT),L      ;COLLISION POINTER NULL FOR NOW
         0000d210     01d0  
    2504 0000d220     0d5f          CALLA   KILLYZP
         0000d230 0000dbc0' 
    2505 0000d250     0d5f          CALLA   CDELALL                 ;DELETE ALL CHOPPER PARTS
         0000d260 00000000! 
    2506 0000d280                   PULL    A13
    2507                    
    2508 0000d2a0     0d5f          CALLA   KILL
         0000d2b0 00000000! 
    2509 0000d2d0     4d48          MOVE    A10,A8                  ;AND PASS IT TO THE PROCESS
    2510 0000d2e0                   CREATE  0EDH,CHOPEXP            ;CREATE THE CHOPPER EXPLODE PROC.
    2511                    
    2512 0000d360     09e0          MOVI    YAMOFF,A0
         0000d370 00000000! 
    2513 0000d390     0d5f          CALLA   ONESND                  ;TURN OFF THE CAR IDLE SOUND
         0000d3a0 00000000! 
    2514 0000d3c0     05a0          MOVE    @PCHOPCNT,A0,W
         0000d3d0 00000000! 
    2515 0000d3f0     1420          DEC     A0
    2516 0000d400     0580          MOVE    A0,@PCHOPCNT,W
         0000d410 00000000! 
    2517 0000d430           PCFLYRX
    2518 0000d430     5600          CLR     A0
    2519 0000d440     0320          CLRC
    2520 0000d450     0960          RETS
    2521                    
    2522                    **************************************************************************
    2523                    *                                                                        *
TMS340 COFF Macro Assembler Version 6.10     Sat Apr 10 02:20:27 2021
 Copyright (c) 1985-1991  Texas Instruments Incorporated 

 <<< N  A  R  C  -- THE CHOPPER >>>                                  PAGE   62

    2524                    * CYZACCEL - START CHOPPER YZ ACCEL/DECEL PROCESS.                       *
    2525                    * A8 = PTR TO DRIVER                                                     *
    2526                    * A9 = ACCELERATION FACTOR/TICK, 32 BITS                                 *
    2527                    * A10 = PTR TO VEHICLE                                                   *
    2528                    * A11 = TERMINAL VELOCITY, 32 BITS                                       *
    2529                    * A13 = PTR TO CHOPPER PROCESS                                           *
    2530                    * RETURNS:                                                               *
    2531                    * A0 = PTR TO PROC. (= 0 IF FAILED)                                      *
    2532                    *                                                                        *
    2533                    **************************************************************************
    2534 0000d460           CYZACCEL
    2535 0000d460     098f          MMTM    SP,A1,A7
         0000d470     4100  
    2536 0000d480     0d3f          CALLR   KILLYZP
         0000d490     0072  
    2537 0000d4a0                   CREATE  INDPID,CYZAPRIM
    2538 0000d520     ca02          JRZ     CYZACCLX
    2539 0000d530     b3a0          MOVE    A13,*A0(PDATA),L
         0000d540     0060  
    2540 0000d550           CYZACCLX
    2541 0000d550     b20d          MOVE    A0,*A13(EYZVELP),L
         0000d560     0080  
    2542 0000d570     09af          MMFM    SP,A1,A7
         0000d580     0082  
    2543 0000d590     0960          RETS
    2544                    
    2545                    
    2546                    **************************************************************************
    2547                    *                                                                        *
    2548                    * CYACCEL - START CHOPPER Y ACCEL/DECEL PROCESS.                         *
    2549                    * A8 = PTR TO DRIVER                                                     *
    2550                    * A9 = ACCELERATION FACTOR/TICK, 32 BITS                                 *
    2551                    * A10 = PTR TO VEHICLE                                                   *
    2552                    * A11 = TERMINAL VELOCITY, 32 BITS                                       *
    2553                    * A13 = PTR TO CHOPPER PROCESS                                           *
    2554                    * RETURNS:                                                               *
    2555                    * A0 = PTR TO PROC. (= 0 IF FAILED)                                      *
    2556                    *                                                                        *
    2557                    **************************************************************************
    2558 0000d5a0           CYACCEL
    2559 0000d5a0     098f          MMTM    SP,A1,A7
         0000d5b0     4100  
    2560 0000d5c0     0d3f          CALLR   KILLYZP
         0000d5d0     005e  
    2561 0000d5e0                   CREATE  INDPID,CYAPRIM
    2562 0000d660     ca02          JRZ     CYACCLX
    2563 0000d670     b3a0          MOVE    A13,*A0(PDATA),L
         0000d680     0060  
    2564 0000d690           CYACCLX
    2565 0000d690     b20d          MOVE    A0,*A13(EYZVELP),L
         0000d6a0     0080  
    2566 0000d6b0     09af          MMFM    SP,A1,A7
         0000d6c0     0082  
    2567 0000d6d0     0960          RETS
    2568                    
TMS340 COFF Macro Assembler Version 6.10     Sat Apr 10 02:20:27 2021
 Copyright (c) 1985-1991  Texas Instruments Incorporated 

 <<< N  A  R  C  -- THE CHOPPER >>>                                  PAGE   63

    2569                    **************************************************************************
    2570                    *                                                                        *
    2571                    * CYZAPRIM - PROCESS TO YZ ACCELERATE A VEHICLE BY SOME CONSTANT.        *
    2572                    *            WHEEL SPEED IS NOT UPDATED HERE.                            *
    2573                    * A8 = PTR TO DRIVER                                                     *
    2574                    * A9 = ACCELERATION FACTOR/TICK                                          *
    2575                    * A10 = PTR TO VEHICLE                                                   *
    2576                    * A11 = TERMINAL VELOCITY, 32 BITS                                       *
    2577                    * *A13(PDATA) = PTR TO VEHICLE CONTROL PROCESS                           *
    2578                    *                                                                        *
    2579                    **************************************************************************
    2580 0000d6e0           CYZAPRIM
    2581 0000d6e0     b741          MOVE    *A10(OYVEL),A1,L
         0000d6f0     0060  
    2582 0000d700     4121          ADD     A9,A1
    2583 0000d710     4f62          MOVE    A11,B2
    2584 0000d720     4e21          MOVE    A1,B1
    2585 0000d730     4432          SUB     B1,B2
    2586 0000d740     4f21          MOVE    A9,B1
    2587 0000d750     0391          ABS     B1
    2588 0000d760     0392          ABS     B2
    2589 0000d770     4832          CMP     B1,B2
    2590 0000d780     c60e          JRLE    CYZPRIMX
    2591 0000d790     4fa0          MOVE    A13,B0
    2592 0000d7a0     b7ad          MOVE    *A13(PDATA),A13,L
         0000d7b0     0060  
    2593 0000d7c0     0d5f          CALLA   CARYZVEL
         0000d7d0 00000000! 
    2594 0000d7f0     4e1d          MOVE    B0,A13
    2595 0000d800                   SLOOP   1,CYZAPRIM
    2596 0000d870           CYZPRIMX
    2597 0000d870     4d61          MOVE    A11,A1
    2598 0000d880     4fa0          MOVE    A13,B0
    2599 0000d890     b7ad          MOVE    *A13(PDATA),A13,L
         0000d8a0     0060  
    2600 0000d8b0     0d5f          CALLA   CARYZVEL
         0000d8c0 00000000! 
    2601 0000d8e0     5621          CLR     A1
    2602 0000d8f0     b22d          MOVE    A1,*A13(EYZVELP),L
         0000d900     0080  
    2603 0000d910     4e1d          MOVE    B0,A13
    2604 0000d920                   DIE
    2605                    
    2606                    **************************************************************************
    2607                    *                                                                        *
    2608                    * CYAPRIM - PROCESS TO Y ACCELERATE A VEHICLE BY SOME CONSTANT.          *
    2609                    *            WHEEL SPEED IS NOT UPDATED HERE.                            *
    2610                    * A8 = PTR TO DRIVER                                                     *
    2611                    * A9 = ACCELERATION FACTOR/TICK                                          *
    2612                    * A10 = PTR TO VEHICLE                                                   *
    2613                    * A11 = TERMINAL VELOCITY, 32 BITS                                       *
    2614                    * *A13(PDATA) = PTR TO VEHICLE CONTROL PROCESS                           *
    2615                    *                                                                        *
    2616                    **************************************************************************
    2617 0000d950           CYAPRIM
TMS340 COFF Macro Assembler Version 6.10     Sat Apr 10 02:20:27 2021
 Copyright (c) 1985-1991  Texas Instruments Incorporated 

 <<< N  A  R  C  -- THE CHOPPER >>>                                  PAGE   64

    2618 0000d950     b741          MOVE    *A10(OYVEL),A1,L
         0000d960     0060  
    2619 0000d970     4121          ADD     A9,A1
    2620 0000d980     4f62          MOVE    A11,B2
    2621 0000d990     4e21          MOVE    A1,B1
    2622 0000d9a0     4432          SUB     B1,B2
    2623 0000d9b0     4f21          MOVE    A9,B1
    2624 0000d9c0     0391          ABS     B1
    2625 0000d9d0     0392          ABS     B2
    2626 0000d9e0     4832          CMP     B1,B2
    2627 0000d9f0     c60e          JRLE    CYPRIMX
    2628 0000da00     4fa0          MOVE    A13,B0
    2629 0000da10     b7ad          MOVE    *A13(PDATA),A13,L
         0000da20     0060  
    2630 0000da30     0d5f          CALLA   CARYVEL
         0000da40 00000000! 
    2631 0000da60     4e1d          MOVE    B0,A13
    2632 0000da70                   SLOOP   1,CYAPRIM
    2633 0000dae0           CYPRIMX
    2634 0000dae0     4d61          MOVE    A11,A1
    2635 0000daf0     4fa0          MOVE    A13,B0
    2636 0000db00     b7ad          MOVE    *A13(PDATA),A13,L
         0000db10     0060  
    2637 0000db20     0d5f          CALLA   CARYVEL
         0000db30 00000000! 
    2638 0000db50     5621          CLR     A1
    2639 0000db60     b22d          MOVE    A1,*A13(EYZVELP),L
         0000db70     0080  
    2640 0000db80     4e1d          MOVE    B0,A13
    2641 0000db90                   DIE
    2642                    
    2643                    **************************************************************************
    2644                    *                                                                        *
    2645                    * KILLYZP - KILL THE CHOPPER YZ ACCEL/DECEL PROCESS.                     *
    2646                    * A8 = PTR TO DRIVER                                                     *
    2647                    * A10 = PTR TO CAR                                                       *
    2648                    * A13 = PTR TO PROCBLOC                                                  *
    2649                    *                                                                        *
    2650                    **************************************************************************
    2651 0000dbc0           KILLYZP
    2652 0000dbc0                   PUSH    A0
    2653 0000dbd0     b7a0          MOVE    *A13(EYZVELP),A0,L
         0000dbe0     0080  
    2654 0000dbf0     ca06          JRZ     KILLYZX
    2655 0000dc00     0d5f          CALLA   KILL
         0000dc10 00000000! 
    2656 0000dc30     5600          CLR     A0
    2657 0000dc40     b20d          MOVE    A0,*A13(EYZVELP),L
         0000dc50     0080  
    2658 0000dc60           KILLYZX
    2659 0000dc60                   PULL    A0
    2660 0000dc80     0960          RETS
    2661                    
    2662                    **************************************************************************
    2663                    *                                                                        *
TMS340 COFF Macro Assembler Version 6.10     Sat Apr 10 02:20:27 2021
 Copyright (c) 1985-1991  Texas Instruments Incorporated 

 <<< N  A  R  C  -- THE CHOPPER >>>                                  PAGE   65

    2664                    * KILLCHOY - PROCESS TO CALL KILLYZP, USED BY IRQ SWITCH TABLE FIRED     *
    2665                    *                                                                        *
    2666                    **************************************************************************
    2667 0000dc90           KILLCHOY
    2668 0000dc90     07aa          MOVE    @PLAYCAR,A10,L
         0000dca0 00000000! 
    2669 0000dcc0     b740          MOVE    *A10(OPLINK),A0,L
         0000dcd0     01f0  
    2670 0000dce0     ca0a          JRZ     KILLCHODI               ;BR = NO CONTROL
    2671 0000dcf0     4dae          MOVE    A13,A14
    2672 0000dd00     4c0d          MOVE    A0,A13                  ;PROC BLOK PTR HERE
    2673 0000dd10     0d5f          CALLA   GETA8                   ;GET THE DRIVER PTR
         0000dd20 00000000! 
    2674 0000dd40     5621          CLR     A1
    2675 0000dd50     0d5f          CALLA   CARYZVEL
         0000dd60 00000000! 
    2676 0000dd80     4dcd          MOVE    A14,A13
    2677 0000dd90           KILLCHODI
    2678 0000dd90                   DIE
    2679                    
    2680                    *
    2681                    *PLAYER FLYABLE CHOPPER INITIALIZATION TO THE RIGHT OF THE SCREEN
    2682 0000ddc0           CHORINIT
    2683 0000ddc0 00000000          .LONG   0,0,[CHOPDIXR,0],[CHOPDIYR,0]   ;SKIDS 1st FOR Z CORRECTNESS
    2684 0000de40     0000          .WORD   0,0A5H
    2685 0000de60 00000800"         .LONG   bluskid1,PCHOPZ,DUMCOLL
    2686 0000dec0     8002          .WORD   DMAWNZ,TRAN2OID|WSHLDID
    2687 0000dee0 00000000          .LONG   0
    2688                    
    2689 0000df00 00000000          .LONG   0,0,[CHOPDIXR,0],[CHOPDIYR,0]   ;BODY AND SKIDS WILL BE SWAPPED
    2690 0000df80     0000          .WORD   0,0
    2691 0000dfa0 00000680"         .LONG   bluchop1a,PCHOPZ,CHOFCOLL
    2692 0000e000     8002          .WORD   DMAWNZ,TRAN2OID|CBODYID
    2693 0000e020 00000000          .LONG   0
    2694                    
    2695 0000e040 00000000          .LONG   0,0,[CHOPDIXR,0],[CHOPDIYR,0]
    2696 0000e0c0     0000          .WORD   0,0
    2697 0000e0e0 00000780"         .LONG   bluchop1c,PCHOPZ,DUMCOLL
    2698 0000e140     8002          .WORD   DMAWNZ,TRAN2OID|WSHLDID
    2699 0000e160 00000000          .LONG   0
    2700                    
    2701 0000e180 00000000          .LONG   0,0,[CHOPDIXR,0],[CHOPDIYR,0]
    2702 0000e200     0000          .WORD   0,0
    2703 0000e220 00000700"         .LONG   bluchop1b,PCHOPZ,DUMCOLL
    2704 0000e280     8002          .WORD   DMAWNZ,TRAN2OID|WSHLDID
    2705 0000e2a0 00000000          .LONG   0
    2706                    
    2707 0000e2c0 00000000          .LONG   0,0,[CHOPDIXR,0],[CHOPDIYR,0]
    2708 0000e340     0000          .WORD   0,0
    2709 0000e360 00000900"         .LONG   bluspin1,PCHOPZ,DUMCOLL
    2710 0000e3c0     8002          .WORD   DMAWNZ,TRAN2OID|FTIREID
    2711 0000e3e0 00000000          .LONG   0
    2712                    
    2713 0000e400 00000000          .LONG   0,0,[CHOPDIXR,0],[CHOPDIYR,0]
    2714 0000e480     0000          .WORD   0,0
TMS340 COFF Macro Assembler Version 6.10     Sat Apr 10 02:20:27 2021
 Copyright (c) 1985-1991  Texas Instruments Incorporated 

 <<< N  A  R  C  -- THE CHOPPER >>>                                  PAGE   66

    2715 0000e4a0 00000880"         .LONG   blufana,PCHOPZ,DUMCOLL
    2716 0000e500     8002          .WORD   DMAWNZ,TRAN2OID|RTIREID
    2717 0000e520 00000000          .LONG   0
    2718                    
    2719 0000e540 00000000          .LONG   0,0,[CHOPDIXR,0],[CHOPDIYR,0]
    2720 0000e5c0     0000          .WORD   0,0
    2721 0000e5e0 00000b00"         .LONG   narclo,PCHOPZ,DUMCOLL
    2722 0000e640     8002          .WORD   DMAWNZ,TRAN2OID|WSHLDID
    2723 0000e660 00000000          .LONG   0
    2724                    
    2725 0000e680 00000000          .LONG   0,0,[CHOPDIXR,0],[CHOPDIYR,0]
    2726 0000e700     0000          .WORD   0,0
    2727 0000e720 00000900"         .LONG   bluspin1,PCHOPZ,DUMCOLL
    2728 0000e780     8012          .WORD   DMAWNZ|M_FLIPH,TRAN2OID|FTIREID
    2729 0000e7a0 00000000          .LONG   0
    2730                    
    2731 0000e7c0 7fff7fff          .LONG   7FFF7FFFH               ;SKIP ETEMP8
    2732 0000e7e0 7fff7fff          .LONG   7FFF7FFFH               ;YOUR THE BEST PILOT
    2733                    
    2734                    **** DATA SECTION ****
    2735 00000c00                   .data
    2736 00000c00           CHOPINIT
    2737 00000c00 00000000          .LONG   0,0,CHOPDIXR*10000H,CHOPDIYR*Y  ;SKIDS 1st FOR Z CORRECTNESS
    2738 00000c80     0000          .WORD   0,0
    2739 00000ca0 00000180"         .LONG   skid1,CHOPZ,TAILCOLL
    2740 00000d00     8002          .WORD   DMAWNZ,CAR3OID|WSHLDID
    2741 00000d20 00000000          .LONG   0
    2742                    
    2743 00000d40 00000000          .LONG   0,0,CHOPDIXR*10000H,CHOPDIYR*Y  ;BODY AND SKIDS WILL BE SWAPPED
    2744 00000dc0     0000          .WORD   0,0
    2745 00000de0 00000000"         .LONG   chop1a,CHOPZ,CHOPCOLL
    2746 00000e40     8002          .WORD   DMAWNZ,CAR3OID|CBODYID
    2747 00000e60 00000000!         .LONG   CHOPBLIP
    2748                    
    2749 00000e80 00000000          .LONG   0,0,CHOPDIXR*10000H,CHOPDIYR*Y
    2750 00000f00     0000          .WORD   0,0
    2751 00000f20 00000100"         .LONG   chop1c,CHOPZ,TAILCOLL
    2752 00000f80     8002          .WORD   DMAWNZ,CAR3OID|WSHLDID
    2753 00000fa0 00000000          .LONG   0
    2754                    
    2755 00000fc0 00000000          .LONG   0,0,CHOPDIXR*10000H,CHOPDIYR*Y
    2756 00001040     0000          .WORD   0,0
    2757 00001060 00000080"         .LONG   chop1b,CHOPZ,TAILCOLL
    2758 000010c0     8002          .WORD   DMAWNZ,CAR3OID|WSHLDID
    2759 000010e0 00000000          .LONG   0
    2760                    
    2761 00001100 00000000          .LONG   0,0,CHOPDIXR*10000H,CHOPDIYR*Y
    2762 00001180     0000          .WORD   0,0
    2763 000011a0 00000380"         .LONG   spin1,CHOPZ,TAILCOLL
    2764 00001200     8002          .WORD   DMAWNZ,CAR3OID|FTIREID
    2765 00001220 00000000          .LONG   0
    2766                    
    2767 00001240 00000000          .LONG   0,0,CHOPDIXR*10000H,CHOPDIYR*Y
    2768 000012c0     0000          .WORD   0,0
    2769 000012e0 00000200"         .LONG   fana,CHOPZ,TAILCOLL
TMS340 COFF Macro Assembler Version 6.10     Sat Apr 10 02:20:27 2021
 Copyright (c) 1985-1991  Texas Instruments Incorporated 

 <<< N  A  R  C  -- THE CHOPPER >>>                                  PAGE   67

    2770 00001340     8002          .WORD   DMAWNZ,CAR3OID|RTIREID
    2771 00001360 00000000          .LONG   0
    2772                    
    2773 00001380 00000000          .LONG   0,0,CHOPDIXR*10000H,CHOPDIYR*Y
    2774 00001400     0000          .WORD   0,0
    2775 00001420 00000b80"         .LONG   kraklo,CHOPZ,TAILCOLL
    2776 00001480     8002          .WORD   DMAWNZ,CAR3OID|WSHLDID
    2777 000014a0 00000000          .LONG   0
    2778                    
    2779 000014c0 00000000          .LONG   0,0,CHOPDIXR*10000H,CHOPDIYR*Y
    2780 00001540     0000          .WORD   0,0
    2781 00001560 00000380"         .LONG   spin1,CHOPZ,TAILCOLL
    2782 000015c0     8012          .WORD   DMAWNZ|M_FLIPH,CAR3OID|FTIREID
    2783 000015e0 00000000          .LONG   0
    2784                    
    2785 00001600 7fff7fff          .LONG   7FFF7FFFH                       ;SKIP ETEMP8
    2786                    
    2787 00001620 00000000          .LONG   0,0,CHOPDIXR*10000H,CHOPDIYR*Y
    2788 000016a0     0000          .WORD   0,0
    2789 000016c0 00000a00"         .LONG   pilot2,CHOPZ,PILCOLL
    2790 00001720     8002          .WORD   DMAWNZ,CAR3OID|DRIVERID
    2791 00001740 00000000          .LONG   0
    2792                    
    2793                    *CHOPPER FURTHER IN X
    2794                    
    2795 00001760           CHOPINT1
    2796 00001760 00000000          .LONG   0,0,1400*10000H,CHOPDIYR*Y      ;SKIDS 1st FOR Z CORRECTNESS
    2797 000017e0     0000          .WORD   0,0
    2798 00001800 00000180"         .LONG   skid1,CHOPZ,TAILCOLL
    2799 00001860     8002          .WORD   DMAWNZ,CAR3OID|WSHLDID
    2800 00001880 00000000          .LONG   0
    2801                    
    2802 000018a0 00000000          .LONG   0,0,1400*10000H,CHOPDIYR*Y      ;BODY AND SKIDS WILL BE SWAPPED
    2803 00001920     0000          .WORD   0,0
    2804 00001940 00000000"         .LONG   chop1a,CHOPZ,CHOPCOLL
    2805 000019a0     8002          .WORD   DMAWNZ,CAR3OID|CBODYID
    2806 000019c0 00000000!         .LONG   CHOPBLIP
    2807                    
    2808 000019e0 00000000          .LONG   0,0,1400*10000H,CHOPDIYR*Y
    2809 00001a60     0000          .WORD   0,0
    2810 00001a80 00000100"         .LONG   chop1c,CHOPZ,TAILCOLL
    2811 00001ae0     8002          .WORD   DMAWNZ,CAR3OID|WSHLDID
    2812 00001b00 00000000          .LONG   0
    2813                    
    2814 00001b20 00000000          .LONG   0,0,1400*10000H,CHOPDIYR*Y
    2815 00001ba0     0000          .WORD   0,0
    2816 00001bc0 00000080"         .LONG   chop1b,CHOPZ,TAILCOLL
    2817 00001c20     8002          .WORD   DMAWNZ,CAR3OID|WSHLDID
    2818 00001c40 00000000          .LONG   0
    2819                    
    2820 00001c60 00000000          .LONG   0,0,1400*10000H,CHOPDIYR*Y
    2821 00001ce0     0000          .WORD   0,0
    2822 00001d00 00000380"         .LONG   spin1,CHOPZ,TAILCOLL
    2823 00001d60     8002          .WORD   DMAWNZ,CAR3OID|FTIREID
    2824 00001d80 00000000          .LONG   0
TMS340 COFF Macro Assembler Version 6.10     Sat Apr 10 02:20:27 2021
 Copyright (c) 1985-1991  Texas Instruments Incorporated 

 <<< N  A  R  C  -- THE CHOPPER >>>                                  PAGE   68

    2825                    
    2826 00001da0 00000000          .LONG   0,0,1400*10000H,CHOPDIYR*Y
    2827 00001e20     0000          .WORD   0,0
    2828 00001e40 00000200"         .LONG   fana,CHOPZ,TAILCOLL
    2829 00001ea0     8002          .WORD   DMAWNZ,CAR3OID|RTIREID
    2830 00001ec0 00000000          .LONG   0
    2831                    
    2832 00001ee0 00000000          .LONG   0,0,1400*10000H,CHOPDIYR*Y
    2833 00001f60     0000          .WORD   0,0
    2834 00001f80 00000b80"         .LONG   kraklo,CHOPZ,TAILCOLL
    2835 00001fe0     8002          .WORD   DMAWNZ,CAR3OID|WSHLDID
    2836 00002000 00000000          .LONG   0
    2837                    
    2838 00002020 00000000          .LONG   0,0,1400*10000H,CHOPDIYR*Y
    2839 000020a0     0000          .WORD   0,0
    2840 000020c0 00000380"         .LONG   spin1,CHOPZ,TAILCOLL
    2841 00002120     8012          .WORD   DMAWNZ|M_FLIPH,CAR3OID|FTIREID
    2842 00002140 00000000          .LONG   0
    2843                    
    2844 00002160 7fff7fff          .LONG   7FFF7FFFH                       ;SKIP ETEMP8
    2845                    
    2846 00002180 00000000          .LONG   0,0,1400*10000H,CHOPDIYR*Y
    2847 00002200     0000          .WORD   0,0
    2848 00002220 00000a00"         .LONG   pilot2,CHOPZ,PILCOLL
    2849 00002280     8002          .WORD   DMAWNZ,CAR3OID|DRIVERID
    2850 000022a0 00000000          .LONG   0
    2851                    
    2852                    *
    2853                    *PLAYER INTRO CHOPPER INITIALIZATION
    2854 000022c0           CHOPINTI
    2855 000022c0 00000000          .LONG   0,0,[256,0],[75,0]      ;SKIDS 1st FOR Z CORRECTNESS
    2856 00002340     0000          .WORD   0,0A5H
    2857 00002360 00000800"         .LONG   bluskid1,PCHOPZ,DUMCOLL
    2858 000023c0     8002          .WORD   DMAWNZ,INTR2OID|WSHLDID
    2859 000023e0 00000000          .LONG   0
    2860                    
    2861 00002400 00000000          .LONG   0,0,[256,0],[75,0]      ;BODY AND SKIDS WILL BE SWAPPED
    2862 00002480     0000          .WORD   0,0
    2863 000024a0 00000680"         .LONG   bluchop1a,PCHOPZ,DUMCOLL
    2864 00002500     8002          .WORD   DMAWNZ,INTR2OID|CBODYID
    2865 00002520 00000000          .LONG   0
    2866                    
    2867 00002540 00000000          .LONG   0,0,[256,0],[75,0]
    2868 000025c0     0000          .WORD   0,0
    2869 000025e0 00000780"         .LONG   bluchop1c,PCHOPZ,DUMCOLL
    2870 00002640     8002          .WORD   DMAWNZ,INTR2OID|WSHLDID
    2871 00002660 00000000          .LONG   0
    2872                    
    2873 00002680 00000000          .LONG   0,0,[256,0],[75,0]
    2874 00002700     0000          .WORD   0,0
    2875 00002720 00000700"         .LONG   bluchop1b,PCHOPZ,DUMCOLL
    2876 00002780     8002          .WORD   DMAWNZ,INTR2OID|WSHLDID
    2877 000027a0 00000000          .LONG   0
    2878                    
    2879 000027c0 00000000          .LONG   0,0,[256,0],[75,0]
TMS340 COFF Macro Assembler Version 6.10     Sat Apr 10 02:20:27 2021
 Copyright (c) 1985-1991  Texas Instruments Incorporated 

 <<< N  A  R  C  -- THE CHOPPER >>>                                  PAGE   69

    2880 00002840     0000          .WORD   0,0
    2881 00002860 00000900"         .LONG   bluspin1,PCHOPZ,DUMCOLL
    2882 000028c0     8002          .WORD   DMAWNZ,INTR2OID|FTIREID
    2883 000028e0 00000000          .LONG   0
    2884                    
    2885 00002900 00000000          .LONG   0,0,[256,0],[75,0]
    2886 00002980     0000          .WORD   0,0
    2887 000029a0 00000880"         .LONG   blufana,PCHOPZ,DUMCOLL
    2888 00002a00     8002          .WORD   DMAWNZ,INTR2OID|RTIREID
    2889 00002a20 00000000          .LONG   0
    2890                    
    2891 00002a40 00000000          .LONG   0,0,[256,0],[75,0]
    2892 00002ac0     0000          .WORD   0,0
    2893 00002ae0 00000b00"         .LONG   narclo,PCHOPZ,DUMCOLL
    2894 00002b40     8002          .WORD   DMAWNZ,INTR2OID|WSHLDID
    2895 00002b60 00000000          .LONG   0
    2896                    
    2897 00002b80 00000000          .LONG   0,0,[256,0],[75,0]
    2898 00002c00     0000          .WORD   0,0
    2899 00002c20 00000900"         .LONG   bluspin1,PCHOPZ,DUMCOLL
    2900 00002c80     8012          .WORD   DMAWNZ|M_FLIPH,INTR2OID|FTIREID
    2901 00002ca0 00000000          .LONG   0
    2902                    
    2903 00002cc0 00000000          .LONG   0,0,[256,0],[75,0]              ;ETEMP8 IS PASSENGER
    2904 00002d40     0000          .WORD   0,0
    2905 00002d60 00000000!         .LONG   jrhelpas,PZSIZ,DUMCOLL
    2906 00002dc0     8002          .WORD   DMAWNZ,P1PLACE
    2907 00002de0 00000000          .LONG   0
    2908                    
    2909 00002e00 00000000          .LONG   0,0,[256,0],[75,0]
    2910 00002e80     0000          .WORD   0,0
    2911 00002ea0 00000000!         .LONG   jrpilot,PCHOPZ,DUMCOLL
    2912 00002f00     8002          .WORD   DMAWNZ,P2PLACE
    2913 00002f20 00000000          .LONG   0
    2914                    
    2915                    *
    2916                    *PLAYER FLYABLE CHOPPER INITIALIZATION
    2917 00002f40           CHOFINIT
    2918 00002f40 00000000          .LONG   0,0,[300,0],[CHOPDIYR,0]        ;SKIDS 1st FOR Z CORRECTNESS
    2919 00002fc0     0000          .WORD   0,0A5H
    2920 00002fe0 00000800"         .LONG   bluskid1,PCHOPZ,DUMCOLL
    2921 00003040     8002          .WORD   DMAWNZ,TRAN2OID|WSHLDID
    2922 00003060 00000000          .LONG   0
    2923                    
    2924 00003080 00000000          .LONG   0,0,[300,0],[CHOPDIYR,0]        ;BODY AND SKIDS WILL BE SWAPPED
    2925 00003100     0000          .WORD   0,0
    2926 00003120 00000680"         .LONG   bluchop1a,PCHOPZ,CHOFCOLL
    2927 00003180     8002          .WORD   DMAWNZ,TRAN2OID|CBODYID
    2928 000031a0 00000000          .LONG   0
    2929                    
    2930 000031c0 00000000          .LONG   0,0,[300,0],[CHOPDIYR,0]
    2931 00003240     0000          .WORD   0,0
    2932 00003260 00000780"         .LONG   bluchop1c,PCHOPZ,DUMCOLL
    2933 000032c0     8002          .WORD   DMAWNZ,TRAN2OID|WSHLDID
    2934 000032e0 00000000          .LONG   0
TMS340 COFF Macro Assembler Version 6.10     Sat Apr 10 02:20:27 2021
 Copyright (c) 1985-1991  Texas Instruments Incorporated 

 <<< N  A  R  C  -- THE CHOPPER >>>                                  PAGE   70

    2935                    
    2936 00003300 00000000          .LONG   0,0,[300,0],[CHOPDIYR,0]
    2937 00003380     0000          .WORD   0,0
    2938 000033a0 00000700"         .LONG   bluchop1b,PCHOPZ,DUMCOLL
    2939 00003400     8002          .WORD   DMAWNZ,TRAN2OID|WSHLDID
    2940 00003420 00000000          .LONG   0
    2941                    
    2942 00003440 00000000          .LONG   0,0,[300,0],[CHOPDIYR,0]
    2943 000034c0     0000          .WORD   0,0
    2944 000034e0 00000900"         .LONG   bluspin1,PCHOPZ,DUMCOLL
    2945 00003540     8002          .WORD   DMAWNZ,TRAN2OID|FTIREID
    2946 00003560 00000000          .LONG   0
    2947                    
    2948 00003580 00000000          .LONG   0,0,[300,0],[CHOPDIYR,0]
    2949 00003600     0000          .WORD   0,0
    2950 00003620 00000880"         .LONG   blufana,PCHOPZ,DUMCOLL
    2951 00003680     8002          .WORD   DMAWNZ,TRAN2OID|RTIREID
    2952 000036a0 00000000          .LONG   0
    2953                    
    2954 000036c0 00000000          .LONG   0,0,[300,0],[CHOPDIYR,0]
    2955 00003740     0000          .WORD   0,0
    2956 00003760 00000b00"         .LONG   narclo,PCHOPZ,DUMCOLL
    2957 000037c0     8002          .WORD   DMAWNZ,TRAN2OID|WSHLDID
    2958 000037e0 00000000          .LONG   0
    2959                    
    2960 00003800 00000000          .LONG   0,0,[300,0],[CHOPDIYR,0]
    2961 00003880     0000          .WORD   0,0
    2962 000038a0 00000900"         .LONG   bluspin1,PCHOPZ,DUMCOLL
    2963 00003900     8012          .WORD   DMAWNZ|M_FLIPH,TRAN2OID|FTIREID
    2964 00003920 00000000          .LONG   0
    2965                    
    2966 00003940 7fff7fff          .LONG   7FFF7FFFH               ;SKIP ETEMP8
    2967 00003960 7fff7fff          .LONG   7FFF7FFFH               ;YOUR THE BEST PILOT
    2968                    
    2969                            .END

 No Errors,  No Warnings
